(lp0
(lp1
(lp2
(lp3
(lp4
I35
aI0
aI19
aI4
aa(lp5
I11
aI0
aI0
aI57
aa(lp6
I33
aI0
aI51
aI0
aa(lp7
I57
aI57
aI26
aI0
aaaI2
aa(lp8
I0
aI0
aI0
aI1
aaa(lp9
(lp10
(lp11
(lp12
I0
aI13
aI8
aI20
aa(lp13
I0
aI0
aI43
aI57
aa(lp14
I57
aI27
aI21
aI27
aa(lp15
I57
aI57
aI0
aI10
aaaI1
aa(lp16
I0
aI0
aI1
aI0
aaa(lp17
(lp18
(lp19
(lp20
I27
aI1
aI0
aI4
aa(lp21
I25
aI0
aI14
aI7
aa(lp22
I0
aI0
aI0
aI5
aa(lp23
I0
aI0
aI43
aI16
aaaI3
aa(lp24
I0
aI1
aI0
aI0
aaa(lp25
(lp26
(lp27
(lp28
I9
aI1
aI0
aI36
aa(lp29
I57
aI28
aI14
aI0
aa(lp30
I15
aI2
aI57
aI0
aa(lp31
I57
aI5
aI57
aI57
aaaI6
aa(lp32
I0
aI1
aI0
aI0
aaa(lp33
(lp34
(lp35
(lp36
I0
aI10
aI45
aI0
aa(lp37
I0
aI26
aI23
aI0
aa(lp38
I42
aI0
aI0
aI0
aa(lp39
I3
aI0
aI0
aI15
aaaI6
aa(lp40
I0
aI0
aI1
aI0
aaa(lp41
(lp42
(lp43
(lp44
I14
aI0
aI10
aI3
aa(lp45
I24
aI57
aI38
aI34
aa(lp46
I0
aI0
aI57
aI0
aa(lp47
I16
aI4
aI39
aI0
aaaI3
aa(lp48
I0
aI0
aI1
aI0
aaa(lp49
(lp50
(lp51
(lp52
I33
aI35
aI1
aI50
aa(lp53
I23
aI57
aI39
aI0
aa(lp54
I27
aI0
aI57
aI24
aa(lp55
I50
aI0
aI39
aI0
aaaI4
aa(lp56
I0
aI0
aI1
aI0
aaa(lp57
(lp58
(lp59
(lp60
I9
aI1
aI18
aI0
aa(lp61
I50
aI0
aI0
aI7
aa(lp62
I33
aI0
aI0
aI27
aa(lp63
I13
aI39
aI50
aI33
aaaI6
aa(lp64
I0
aI1
aI0
aI0
aaa(lp65
(lp66
(lp67
(lp68
I0
aI0
aI0
aI42
aa(lp69
I0
aI0
aI1
aI0
aa(lp70
I38
aI0
aI0
aI33
aa(lp71
I0
aI11
aI0
aI57
aaaI6
aa(lp72
I0
aI0
aI0
aI1
aaa(lp73
(lp74
(lp75
(lp76
I0
aI0
aI30
aI0
aa(lp77
I27
aI57
aI57
aI57
aa(lp78
I0
aI40
aI0
aI0
aa(lp79
I57
aI33
aI0
aI57
aaaI6
aa(lp80
I1
aI0
aI0
aI0
aaa(lp81
(lp82
(lp83
(lp84
I8
aI26
aI7
aI14
aa(lp85
I14
aI41
aI0
aI30
aa(lp86
I5
aI0
aI0
aI0
aa(lp87
I0
aI0
aI15
aI0
aaaI5
aa(lp88
I0
aI0
aI1
aI0
aaa(lp89
(lp90
(lp91
(lp92
I9
aI43
aI57
aI10
aa(lp93
I57
aI0
aI49
aI57
aa(lp94
I27
aI21
aI0
aI24
aa(lp95
I57
aI0
aI0
aI7
aaaI1
aa(lp96
I0
aI1
aI0
aI0
aaa(lp97
(lp98
(lp99
(lp100
I7
aI0
aI0
aI37
aa(lp101
I0
aI18
aI37
aI0
aa(lp102
I0
aI57
aI28
aI33
aa(lp103
I40
aI4
aI45
aI48
aaaI6
aa(lp104
I1
aI0
aI0
aI0
aaa(lp105
(lp106
(lp107
(lp108
I7
aI4
aI14
aI40
aa(lp109
I0
aI2
aI33
aI0
aa(lp110
I57
aI0
aI35
aI27
aa(lp111
I57
aI0
aI0
aI21
aaaI5
aa(lp112
I1
aI0
aI0
aI0
aaa(lp113
(lp114
(lp115
(lp116
I9
aI17
aI24
aI0
aa(lp117
I12
aI0
aI0
aI14
aa(lp118
I0
aI0
aI0
aI7
aa(lp119
I0
aI47
aI39
aI0
aaaI6
aa(lp120
I0
aI0
aI1
aI0
aaa(lp121
(lp122
(lp123
(lp124
I0
aI0
aI0
aI0
aa(lp125
I29
aI3
aI57
aI0
aa(lp126
I0
aI0
aI0
aI0
aa(lp127
I0
aI45
aI41
aI22
aaaI6
aa(lp128
I1
aI0
aI0
aI0
aaa(lp129
(lp130
(lp131
(lp132
I9
aI42
aI57
aI7
aa(lp133
I33
aI57
aI50
aI23
aa(lp134
I0
aI0
aI0
aI47
aa(lp135
I0
aI0
aI0
aI0
aaaI6
aa(lp136
I0
aI0
aI0
aI1
aaa(lp137
(lp138
(lp139
(lp140
I0
aI33
aI2
aI36
aa(lp141
I0
aI0
aI0
aI49
aa(lp142
I0
aI26
aI38
aI0
aa(lp143
I0
aI0
aI0
aI0
aaaI3
aa(lp144
I0
aI0
aI1
aI0
aaa(lp145
(lp146
(lp147
(lp148
I12
aI0
aI0
aI0
aa(lp149
I2
aI40
aI57
aI57
aa(lp150
I36
aI0
aI31
aI29
aa(lp151
I9
aI38
aI57
aI0
aaaI6
aa(lp152
I1
aI0
aI0
aI0
aaa(lp153
(lp154
(lp155
(lp156
I46
aI0
aI57
aI1
aa(lp157
I0
aI37
aI20
aI0
aa(lp158
I40
aI0
aI0
aI0
aa(lp159
I57
aI0
aI35
aI0
aaaI6
aa(lp160
I0
aI1
aI0
aI0
aaa(lp161
(lp162
(lp163
(lp164
I0
aI41
aI2
aI3
aa(lp165
I0
aI31
aI35
aI14
aa(lp166
I57
aI27
aI0
aI47
aa(lp167
I15
aI0
aI3
aI0
aaaI5
aa(lp168
I1
aI0
aI0
aI0
aaa(lp169
(lp170
(lp171
(lp172
I0
aI57
aI5
aI0
aa(lp173
I16
aI14
aI0
aI11
aa(lp174
I57
aI45
aI38
aI4
aa(lp175
I0
aI46
aI2
aI0
aaaI6
aa(lp176
I1
aI0
aI0
aI0
aaa(lp177
(lp178
(lp179
(lp180
I24
aI57
aI23
aI1
aa(lp181
I37
aI57
aI57
aI57
aa(lp182
I57
aI57
aI0
aI44
aa(lp183
I47
aI57
aI57
aI47
aaaI4
aa(lp184
I0
aI0
aI0
aI1
aaa(lp185
(lp186
(lp187
(lp188
I0
aI57
aI7
aI1
aa(lp189
I49
aI57
aI57
aI57
aa(lp190
I57
aI57
aI33
aI57
aa(lp191
I49
aI57
aI57
aI0
aaaI6
aa(lp192
I1
aI0
aI0
aI0
aaa(lp193
(lp194
(lp195
(lp196
I7
aI8
aI19
aI0
aa(lp197
I0
aI24
aI0
aI0
aa(lp198
I47
aI27
aI38
aI0
aa(lp199
I0
aI4
aI0
aI0
aaaI4
aa(lp200
I0
aI0
aI0
aI1
aaa(lp201
(lp202
(lp203
(lp204
I0
aI0
aI0
aI0
aa(lp205
I57
aI33
aI4
aI57
aa(lp206
I0
aI47
aI0
aI46
aa(lp207
I0
aI57
aI57
aI16
aaaI6
aa(lp208
I1
aI0
aI0
aI0
aaa(lp209
(lp210
(lp211
(lp212
I0
aI0
aI42
aI43
aa(lp213
I51
aI0
aI0
aI0
aa(lp214
I19
aI0
aI12
aI0
aa(lp215
I14
aI0
aI0
aI49
aaaI6
aa(lp216
I0
aI1
aI0
aI0
aaa(lp217
(lp218
(lp219
(lp220
I1
aI27
aI3
aI0
aa(lp221
I0
aI0
aI33
aI0
aa(lp222
I0
aI0
aI39
aI17
aa(lp223
I0
aI46
aI0
aI50
aaaI5
aa(lp224
I0
aI0
aI1
aI0
aaa(lp225
(lp226
(lp227
(lp228
I0
aI13
aI18
aI8
aa(lp229
I6
aI24
aI0
aI26
aa(lp230
I0
aI3
aI4
aI0
aa(lp231
I0
aI0
aI0
aI9
aaaI2
aa(lp232
I0
aI0
aI1
aI0
aaa(lp233
(lp234
(lp235
(lp236
I0
aI57
aI0
aI13
aa(lp237
I0
aI57
aI11
aI0
aa(lp238
I0
aI0
aI27
aI0
aa(lp239
I0
aI0
aI46
aI0
aaaI6
aa(lp240
I0
aI0
aI0
aI1
aaa(lp241
(lp242
(lp243
(lp244
I0
aI57
aI0
aI36
aa(lp245
I14
aI57
aI0
aI0
aa(lp246
I5
aI0
aI0
aI12
aa(lp247
I39
aI37
aI51
aI26
aaaI6
aa(lp248
I1
aI0
aI0
aI0
aaa(lp249
(lp250
(lp251
(lp252
I0
aI13
aI39
aI5
aa(lp253
I0
aI0
aI0
aI50
aa(lp254
I0
aI57
aI0
aI7
aa(lp255
I24
aI0
aI39
aI1
aaaI5
aa(lp256
I0
aI0
aI0
aI1
aaa(lp257
(lp258
(lp259
(lp260
I57
aI12
aI12
aI0
aa(lp261
I34
aI0
aI42
aI14
aa(lp262
I25
aI0
aI57
aI0
aa(lp263
I50
aI0
aI0
aI0
aaaI6
aa(lp264
I0
aI0
aI0
aI1
aaa(lp265
(lp266
(lp267
(lp268
I57
aI23
aI33
aI1
aa(lp269
I0
aI41
aI0
aI0
aa(lp270
I57
aI38
aI57
aI0
aa(lp271
I2
aI2
aI39
aI0
aaaI5
aa(lp272
I0
aI0
aI0
aI1
aaa(lp273
(lp274
(lp275
(lp276
I0
aI0
aI0
aI8
aa(lp277
I14
aI0
aI0
aI0
aa(lp278
I36
aI36
aI0
aI0
aa(lp279
I0
aI0
aI6
aI0
aaaI6
aa(lp280
I1
aI0
aI0
aI0
aaa(lp281
(lp282
(lp283
(lp284
I30
aI4
aI57
aI8
aa(lp285
I35
aI0
aI14
aI0
aa(lp286
I5
aI27
aI0
aI0
aa(lp287
I0
aI40
aI35
aI42
aaaI4
aa(lp288
I0
aI0
aI0
aI1
aaa(lp289
(lp290
(lp291
(lp292
I1
aI29
aI57
aI0
aa(lp293
I29
aI57
aI57
aI0
aa(lp294
I0
aI30
aI7
aI0
aa(lp295
I18
aI0
aI0
aI0
aaaI6
aa(lp296
I0
aI0
aI0
aI1
aaa(lp297
(lp298
(lp299
(lp300
I13
aI6
aI57
aI9
aa(lp301
I30
aI57
aI57
aI43
aa(lp302
I24
aI27
aI57
aI0
aa(lp303
I0
aI51
aI0
aI0
aaaI1
aa(lp304
I1
aI0
aI0
aI0
aaa(lp305
(lp306
(lp307
(lp308
I18
aI1
aI57
aI43
aa(lp309
I35
aI57
aI57
aI13
aa(lp310
I27
aI57
aI57
aI0
aa(lp311
I13
aI32
aI39
aI45
aaaI2
aa(lp312
I1
aI0
aI0
aI0
aaa(lp313
(lp314
(lp315
(lp316
I29
aI43
aI57
aI5
aa(lp317
I15
aI57
aI57
aI15
aa(lp318
I0
aI57
aI57
aI22
aa(lp319
I43
aI31
aI0
aI0
aaaI2
aa(lp320
I0
aI1
aI0
aI0
aaa(lp321
(lp322
(lp323
(lp324
I19
aI0
aI16
aI39
aa(lp325
I0
aI36
aI57
aI14
aa(lp326
I31
aI0
aI0
aI29
aa(lp327
I0
aI57
aI0
aI3
aaaI2
aa(lp328
I0
aI0
aI0
aI1
aaa(lp329
(lp330
(lp331
(lp332
I3
aI0
aI0
aI14
aa(lp333
I0
aI40
aI57
aI47
aa(lp334
I27
aI0
aI43
aI0
aa(lp335
I0
aI57
aI16
aI29
aaaI6
aa(lp336
I0
aI1
aI0
aI0
aaa(lp337
(lp338
(lp339
(lp340
I1
aI10
aI0
aI0
aa(lp341
I0
aI0
aI57
aI37
aa(lp342
I18
aI57
aI57
aI27
aa(lp343
I57
aI57
aI57
aI45
aaaI6
aa(lp344
I0
aI0
aI1
aI0
aaa(lp345
(lp346
(lp347
(lp348
I0
aI0
aI57
aI0
aa(lp349
I17
aI0
aI0
aI31
aa(lp350
I57
aI25
aI0
aI57
aa(lp351
I0
aI57
aI50
aI43
aaaI6
aa(lp352
I1
aI0
aI0
aI0
aaa(lp353
(lp354
(lp355
(lp356
I0
aI57
aI0
aI0
aa(lp357
I0
aI33
aI0
aI3
aa(lp358
I0
aI45
aI0
aI0
aa(lp359
I11
aI57
aI57
aI17
aaaI6
aa(lp360
I1
aI0
aI0
aI0
aaa(lp361
(lp362
(lp363
(lp364
I5
aI0
aI0
aI44
aa(lp365
I0
aI0
aI0
aI36
aa(lp366
I0
aI0
aI0
aI0
aa(lp367
I31
aI0
aI0
aI1
aaaI6
aa(lp368
I0
aI1
aI0
aI0
aaa(lp369
(lp370
(lp371
(lp372
I12
aI1
aI0
aI36
aa(lp373
I0
aI0
aI8
aI0
aa(lp374
I0
aI27
aI23
aI0
aa(lp375
I47
aI57
aI1
aI48
aaaI5
aa(lp376
I0
aI0
aI0
aI1
aaa.