(lp0
(lp1
(lp2
(lp3
(lp4
I20
aI0
aI26
aI20
aa(lp5
I8
aI0
aI57
aI14
aa(lp6
I27
aI2
aI0
aI0
aa(lp7
I0
aI0
aI3
aI0
aaaI4
aa(lp8
I0
aI0
aI0
aI1
aaa(lp9
(lp10
(lp11
(lp12
I34
aI42
aI57
aI0
aa(lp13
I0
aI13
aI47
aI30
aa(lp14
I11
aI0
aI0
aI6
aa(lp15
I0
aI57
aI25
aI57
aaaI6
aa(lp16
I0
aI0
aI0
aI1
aaa(lp17
(lp18
(lp19
(lp20
I14
aI0
aI0
aI0
aa(lp21
I0
aI0
aI0
aI41
aa(lp22
I0
aI0
aI12
aI0
aa(lp23
I39
aI0
aI47
aI19
aaaI6
aa(lp24
I0
aI1
aI0
aI0
aaa(lp25
(lp26
(lp27
(lp28
I33
aI0
aI0
aI0
aa(lp29
I43
aI0
aI20
aI0
aa(lp30
I36
aI0
aI0
aI0
aa(lp31
I2
aI0
aI22
aI48
aaaI6
aa(lp32
I0
aI1
aI0
aI0
aaa(lp33
(lp34
(lp35
(lp36
I0
aI0
aI18
aI0
aa(lp37
I26
aI0
aI0
aI0
aa(lp38
I27
aI29
aI13
aI40
aa(lp39
I43
aI0
aI6
aI0
aaaI6
aa(lp40
I1
aI0
aI0
aI0
aaa(lp41
(lp42
(lp43
(lp44
I2
aI31
aI23
aI0
aa(lp45
I0
aI0
aI0
aI0
aa(lp46
I40
aI37
aI0
aI44
aa(lp47
I8
aI50
aI0
aI5
aaaI1
aa(lp48
I0
aI1
aI0
aI0
aaa(lp49
(lp50
(lp51
(lp52
I6
aI0
aI20
aI7
aa(lp53
I0
aI49
aI57
aI44
aa(lp54
I0
aI0
aI0
aI30
aa(lp55
I0
aI37
aI0
aI0
aaaI3
aa(lp56
I1
aI0
aI0
aI0
aaa(lp57
(lp58
(lp59
(lp60
I0
aI44
aI0
aI0
aa(lp61
I0
aI57
aI14
aI0
aa(lp62
I57
aI31
aI27
aI34
aa(lp63
I57
aI51
aI0
aI0
aaaI6
aa(lp64
I1
aI0
aI0
aI0
aaa(lp65
(lp66
(lp67
(lp68
I9
aI34
aI1
aI9
aa(lp69
I14
aI57
aI23
aI12
aa(lp70
I57
aI40
aI13
aI14
aa(lp71
I57
aI46
aI0
aI0
aaaI2
aa(lp72
I1
aI0
aI0
aI0
aaa(lp73
(lp74
(lp75
(lp76
I0
aI18
aI19
aI45
aa(lp77
I17
aI16
aI13
aI42
aa(lp78
I0
aI0
aI0
aI4
aa(lp79
I26
aI57
aI11
aI0
aaaI5
aa(lp80
I0
aI0
aI0
aI1
aaa(lp81
(lp82
(lp83
(lp84
I0
aI17
aI2
aI0
aa(lp85
I0
aI8
aI0
aI0
aa(lp86
I0
aI0
aI0
aI38
aa(lp87
I0
aI40
aI57
aI57
aaaI6
aa(lp88
I1
aI0
aI0
aI0
aaa(lp89
(lp90
(lp91
(lp92
I0
aI0
aI57
aI0
aa(lp93
I49
aI57
aI0
aI0
aa(lp94
I57
aI57
aI0
aI40
aa(lp95
I17
aI17
aI57
aI57
aaaI6
aa(lp96
I1
aI0
aI0
aI0
aaa(lp97
(lp98
(lp99
(lp100
I28
aI11
aI36
aI0
aa(lp101
I0
aI57
aI57
aI47
aa(lp102
I40
aI42
aI17
aI0
aa(lp103
I4
aI57
aI0
aI57
aaaI3
aa(lp104
I0
aI0
aI1
aI0
aaa(lp105
(lp106
(lp107
(lp108
I12
aI7
aI0
aI31
aa(lp109
I15
aI0
aI0
aI0
aa(lp110
I0
aI45
aI0
aI48
aa(lp111
I11
aI33
aI57
aI22
aaaI6
aa(lp112
I0
aI0
aI1
aI0
aaa(lp113
(lp114
(lp115
(lp116
I47
aI33
aI0
aI1
aa(lp117
I57
aI47
aI57
aI0
aa(lp118
I0
aI0
aI0
aI0
aa(lp119
I9
aI0
aI57
aI57
aaaI2
aa(lp120
I0
aI0
aI0
aI1
aaa(lp121
(lp122
(lp123
(lp124
I0
aI0
aI0
aI15
aa(lp125
I57
aI31
aI57
aI57
aa(lp126
I43
aI57
aI27
aI57
aa(lp127
I57
aI39
aI57
aI57
aaaI6
aa(lp128
I0
aI0
aI1
aI0
aaa(lp129
(lp130
(lp131
(lp132
I37
aI9
aI36
aI0
aa(lp133
I0
aI0
aI0
aI0
aa(lp134
I49
aI27
aI57
aI27
aa(lp135
I0
aI9
aI0
aI0
aaaI5
aa(lp136
I0
aI0
aI1
aI0
aaa(lp137
(lp138
(lp139
(lp140
I0
aI4
aI35
aI57
aa(lp141
I0
aI0
aI0
aI14
aa(lp142
I39
aI0
aI10
aI0
aa(lp143
I0
aI0
aI0
aI57
aaaI6
aa(lp144
I1
aI0
aI0
aI0
aaa(lp145
(lp146
(lp147
(lp148
I25
aI12
aI15
aI57
aa(lp149
I0
aI22
aI0
aI31
aa(lp150
I45
aI27
aI46
aI0
aa(lp151
I10
aI46
aI57
aI57
aaaI3
aa(lp152
I0
aI1
aI0
aI0
aaa(lp153
(lp154
(lp155
(lp156
I4
aI0
aI45
aI57
aa(lp157
I0
aI0
aI41
aI36
aa(lp158
I0
aI27
aI0
aI27
aa(lp159
I0
aI18
aI57
aI57
aaaI6
aa(lp160
I0
aI1
aI0
aI0
aaa(lp161
(lp162
(lp163
(lp164
I1
aI0
aI0
aI57
aa(lp165
I0
aI20
aI0
aI36
aa(lp166
I6
aI47
aI0
aI6
aa(lp167
I31
aI0
aI57
aI57
aaaI6
aa(lp168
I0
aI1
aI0
aI0
aaa(lp169
(lp170
(lp171
(lp172
I0
aI0
aI12
aI57
aa(lp173
I44
aI57
aI0
aI57
aa(lp174
I1
aI0
aI57
aI48
aa(lp175
I57
aI41
aI57
aI57
aaaI6
aa(lp176
I0
aI1
aI0
aI0
aaa(lp177
(lp178
(lp179
(lp180
I13
aI20
aI3
aI52
aa(lp181
I0
aI0
aI0
aI57
aa(lp182
I57
aI11
aI57
aI0
aa(lp183
I0
aI39
aI36
aI0
aaaI5
aa(lp184
I0
aI1
aI0
aI0
aaa(lp185
(lp186
(lp187
(lp188
I33
aI0
aI11
aI2
aa(lp189
I57
aI0
aI41
aI18
aa(lp190
I36
aI51
aI0
aI12
aa(lp191
I0
aI0
aI0
aI0
aaaI1
aa(lp192
I0
aI0
aI1
aI0
aaa(lp193
(lp194
(lp195
(lp196
I28
aI29
aI0
aI10
aa(lp197
I57
aI0
aI57
aI26
aa(lp198
I57
aI57
aI16
aI27
aa(lp199
I3
aI41
aI39
aI1
aaaI2
aa(lp200
I0
aI1
aI0
aI0
aaa(lp201
(lp202
(lp203
(lp204
I45
aI0
aI32
aI57
aa(lp205
I5
aI14
aI18
aI0
aa(lp206
I0
aI57
aI57
aI12
aa(lp207
I5
aI0
aI20
aI0
aaaI6
aa(lp208
I0
aI1
aI0
aI0
aaa(lp209
(lp210
(lp211
(lp212
I7
aI26
aI1
aI12
aa(lp213
I16
aI20
aI57
aI22
aa(lp214
I0
aI0
aI36
aI0
aa(lp215
I48
aI0
aI47
aI57
aaaI2
aa(lp216
I1
aI0
aI0
aI0
aaa(lp217
(lp218
(lp219
(lp220
I1
aI39
aI8
aI31
aa(lp221
I40
aI31
aI57
aI40
aa(lp222
I0
aI36
aI0
aI0
aa(lp223
I0
aI5
aI20
aI57
aaaI4
aa(lp224
I1
aI0
aI0
aI0
aaa(lp225
(lp226
(lp227
(lp228
I0
aI57
aI25
aI11
aa(lp229
I39
aI0
aI57
aI0
aa(lp230
I0
aI0
aI47
aI57
aa(lp231
I1
aI0
aI0
aI57
aaaI6
aa(lp232
I1
aI0
aI0
aI0
aaa(lp233
(lp234
(lp235
(lp236
I57
aI0
aI0
aI18
aa(lp237
I39
aI57
aI0
aI57
aa(lp238
I57
aI0
aI27
aI0
aa(lp239
I4
aI0
aI57
aI0
aaaI6
aa(lp240
I0
aI1
aI0
aI0
aaa(lp241
(lp242
(lp243
(lp244
I0
aI57
aI37
aI44
aa(lp245
I0
aI0
aI0
aI21
aa(lp246
I0
aI42
aI6
aI57
aa(lp247
I0
aI14
aI0
aI0
aaaI6
aa(lp248
I1
aI0
aI0
aI0
aaa(lp249
(lp250
(lp251
(lp252
I0
aI0
aI19
aI1
aa(lp253
I0
aI9
aI18
aI36
aa(lp254
I42
aI57
aI0
aI0
aa(lp255
I39
aI0
aI0
aI0
aaaI6
aa(lp256
I1
aI0
aI0
aI0
aaa(lp257
(lp258
(lp259
(lp260
I57
aI7
aI10
aI24
aa(lp261
I0
aI0
aI17
aI32
aa(lp262
I0
aI57
aI0
aI0
aa(lp263
I0
aI57
aI57
aI5
aaaI4
aa(lp264
I0
aI1
aI0
aI0
aaa(lp265
(lp266
(lp267
(lp268
I1
aI15
aI1
aI4
aa(lp269
I0
aI0
aI38
aI36
aa(lp270
I48
aI3
aI0
aI0
aa(lp271
I0
aI0
aI27
aI28
aaaI4
aa(lp272
I0
aI1
aI0
aI0
aaa(lp273
(lp274
(lp275
(lp276
I19
aI0
aI6
aI4
aa(lp277
I0
aI57
aI6
aI57
aa(lp278
I28
aI57
aI0
aI28
aa(lp279
I38
aI15
aI39
aI57
aaaI4
aa(lp280
I1
aI0
aI0
aI0
aaa(lp281
(lp282
(lp283
(lp284
I0
aI0
aI12
aI0
aa(lp285
I30
aI57
aI0
aI57
aa(lp286
I37
aI57
aI49
aI0
aa(lp287
I10
aI0
aI0
aI57
aaaI6
aa(lp288
I0
aI0
aI1
aI0
aaa(lp289
(lp290
(lp291
(lp292
I0
aI4
aI0
aI0
aa(lp293
I11
aI57
aI30
aI57
aa(lp294
I0
aI57
aI22
aI50
aa(lp295
I39
aI0
aI0
aI57
aaaI6
aa(lp296
I1
aI0
aI0
aI0
aaa(lp297
(lp298
(lp299
(lp300
I0
aI0
aI0
aI10
aa(lp301
I57
aI57
aI27
aI57
aa(lp302
I7
aI57
aI57
aI0
aa(lp303
I24
aI0
aI33
aI57
aaaI6
aa(lp304
I1
aI0
aI0
aI0
aaa(lp305
(lp306
(lp307
(lp308
I16
aI1
aI2
aI7
aa(lp309
I57
aI57
aI37
aI57
aa(lp310
I0
aI27
aI0
aI15
aa(lp311
I38
aI0
aI0
aI0
aaaI3
aa(lp312
I0
aI1
aI0
aI0
aaa(lp313
(lp314
(lp315
(lp316
I9
aI12
aI16
aI57
aa(lp317
I0
aI20
aI57
aI20
aa(lp318
I0
aI57
aI25
aI30
aa(lp319
I0
aI36
aI57
aI50
aaaI2
aa(lp320
I1
aI0
aI0
aI0
aaa(lp321
(lp322
(lp323
(lp324
I2
aI30
aI46
aI0
aa(lp325
I0
aI0
aI0
aI11
aa(lp326
I0
aI36
aI27
aI42
aa(lp327
I20
aI0
aI0
aI0
aaaI2
aa(lp328
I1
aI0
aI0
aI0
aaa(lp329
(lp330
(lp331
(lp332
I0
aI0
aI46
aI0
aa(lp333
I43
aI57
aI0
aI0
aa(lp334
I0
aI11
aI0
aI37
aa(lp335
I5
aI0
aI0
aI20
aaaI6
aa(lp336
I1
aI0
aI0
aI0
aaa(lp337
(lp338
(lp339
(lp340
I4
aI0
aI11
aI11
aa(lp341
I25
aI0
aI18
aI22
aa(lp342
I0
aI27
aI0
aI0
aa(lp343
I0
aI39
aI0
aI39
aaaI5
aa(lp344
I1
aI0
aI0
aI0
aaa(lp345
(lp346
(lp347
(lp348
I0
aI0
aI0
aI9
aa(lp349
I0
aI14
aI0
aI36
aa(lp350
I44
aI0
aI0
aI43
aa(lp351
I57
aI57
aI29
aI46
aaaI6
aa(lp352
I1
aI0
aI0
aI0
aaa(lp353
(lp354
(lp355
(lp356
I0
aI0
aI57
aI2
aa(lp357
I0
aI13
aI25
aI29
aa(lp358
I0
aI0
aI0
aI0
aa(lp359
I57
aI57
aI57
aI33
aaaI6
aa(lp360
I1
aI0
aI0
aI0
aaa(lp361
(lp362
(lp363
(lp364
I12
aI7
aI27
aI40
aa(lp365
I33
aI57
aI0
aI0
aa(lp366
I30
aI57
aI0
aI0
aa(lp367
I5
aI0
aI57
aI46
aaaI4
aa(lp368
I0
aI0
aI0
aI1
aaa(lp369
(lp370
(lp371
(lp372
I0
aI0
aI0
aI21
aa(lp373
I57
aI44
aI0
aI0
aa(lp374
I57
aI57
aI28
aI3
aa(lp375
I0
aI41
aI6
aI41
aaaI6
aa(lp376
I0
aI0
aI0
aI1
aaa(lp377
(lp378
(lp379
(lp380
I0
aI38
aI0
aI0
aa(lp381
I57
aI15
aI0
aI0
aa(lp382
I57
aI57
aI57
aI12
aa(lp383
I39
aI0
aI26
aI0
aaaI6
aa(lp384
I0
aI1
aI0
aI0
aaa(lp385
(lp386
(lp387
(lp388
I0
aI4
aI5
aI27
aa(lp389
I35
aI36
aI0
aI28
aa(lp390
I12
aI0
aI45
aI39
aa(lp391
I2
aI0
aI0
aI0
aaaI5
aa(lp392
I0
aI0
aI0
aI1
aaa(lp393
(lp394
(lp395
(lp396
I12
aI20
aI0
aI57
aa(lp397
I0
aI33
aI0
aI0
aa(lp398
I0
aI0
aI47
aI44
aa(lp399
I0
aI0
aI4
aI4
aaaI6
aa(lp400
I0
aI0
aI1
aI0
aaa(lp401
(lp402
(lp403
(lp404
I24
aI0
aI0
aI57
aa(lp405
I57
aI11
aI35
aI27
aa(lp406
I0
aI57
aI0
aI33
aa(lp407
I0
aI39
aI40
aI0
aaaI6
aa(lp408
I0
aI0
aI1
aI0
aaa(lp409
(lp410
(lp411
(lp412
I0
aI0
aI39
aI0
aa(lp413
I0
aI0
aI17
aI0
aa(lp414
I0
aI34
aI49
aI57
aa(lp415
I23
aI40
aI0
aI0
aaaI6
aa(lp416
I0
aI0
aI0
aI1
aaa(lp417
(lp418
(lp419
(lp420
I42
aI1
aI15
aI0
aa(lp421
I0
aI0
aI57
aI49
aa(lp422
I50
aI0
aI0
aI36
aa(lp423
I0
aI50
aI0
aI27
aaaI4
aa(lp424
I0
aI0
aI0
aI1
aaa(lp425
(lp426
(lp427
(lp428
I25
aI1
aI0
aI0
aa(lp429
I0
aI30
aI0
aI0
aa(lp430
I0
aI0
aI35
aI50
aa(lp431
I40
aI15
aI6
aI0
aaaI6
aa(lp432
I0
aI0
aI0
aI1
aaa(lp433
(lp434
(lp435
(lp436
I35
aI19
aI8
aI0
aa(lp437
I0
aI41
aI20
aI0
aa(lp438
I0
aI0
aI48
aI0
aa(lp439
I0
aI43
aI49
aI0
aaaI5
aa(lp440
I0
aI0
aI0
aI1
aaa(lp441
(lp442
(lp443
(lp444
I13
aI25
aI10
aI46
aa(lp445
I2
aI57
aI14
aI37
aa(lp446
I6
aI50
aI38
aI51
aa(lp447
I39
aI12
aI0
aI39
aaaI2
aa(lp448
I0
aI0
aI0
aI1
aaa(lp449
(lp450
(lp451
(lp452
I57
aI9
aI35
aI43
aa(lp453
I57
aI57
aI30
aI0
aa(lp454
I27
aI0
aI0
aI57
aa(lp455
I0
aI0
aI43
aI13
aaaI5
aa(lp456
I0
aI1
aI0
aI0
aaa(lp457
(lp458
(lp459
(lp460
I4
aI0
aI5
aI4
aa(lp461
I20
aI57
aI0
aI0
aa(lp462
I35
aI24
aI0
aI27
aa(lp463
I0
aI46
aI0
aI8
aaaI6
aa(lp464
I1
aI0
aI0
aI0
aaa(lp465
(lp466
(lp467
(lp468
I13
aI1
aI5
aI11
aa(lp469
I40
aI57
aI0
aI14
aa(lp470
I45
aI0
aI0
aI35
aa(lp471
I0
aI5
aI0
aI21
aaaI3
aa(lp472
I0
aI0
aI0
aI1
aaa(lp473
(lp474
(lp475
(lp476
I0
aI0
aI21
aI0
aa(lp477
I0
aI57
aI40
aI0
aa(lp478
I42
aI0
aI27
aI0
aa(lp479
I0
aI32
aI7
aI0
aaaI6
aa(lp480
I1
aI0
aI0
aI0
aaa(lp481
(lp482
(lp483
(lp484
I7
aI0
aI0
aI0
aa(lp485
I30
aI57
aI41
aI57
aa(lp486
I0
aI0
aI0
aI0
aa(lp487
I0
aI0
aI0
aI35
aaaI6
aa(lp488
I0
aI1
aI0
aI0
aaa(lp489
(lp490
(lp491
(lp492
I38
aI24
aI14
aI0
aa(lp493
I0
aI57
aI9
aI57
aa(lp494
I0
aI0
aI57
aI30
aa(lp495
I0
aI0
aI0
aI25
aaaI5
aa(lp496
I0
aI0
aI1
aI0
aaa(lp497
(lp498
(lp499
(lp500
I18
aI0
aI0
aI4
aa(lp501
I48
aI0
aI0
aI0
aa(lp502
I19
aI0
aI0
aI0
aa(lp503
I37
aI31
aI39
aI0
aaaI6
aa(lp504
I0
aI1
aI0
aI0
aaa(lp505
(lp506
(lp507
(lp508
I26
aI0
aI22
aI25
aa(lp509
I0
aI0
aI51
aI8
aa(lp510
I41
aI30
aI0
aI0
aa(lp511
I0
aI46
aI3
aI48
aaaI2
aa(lp512
I1
aI0
aI0
aI0
aaa(lp513
(lp514
(lp515
(lp516
I57
aI36
aI12
aI0
aa(lp517
I10
aI17
aI25
aI0
aa(lp518
I7
aI0
aI5
aI0
aa(lp519
I0
aI0
aI57
aI0
aaaI6
aa(lp520
I0
aI0
aI1
aI0
aaa(lp521
(lp522
(lp523
(lp524
I57
aI0
aI22
aI46
aa(lp525
I0
aI50
aI14
aI0
aa(lp526
I27
aI0
aI0
aI0
aa(lp527
I15
aI0
aI57
aI0
aaaI6
aa(lp528
I0
aI1
aI0
aI0
aaa(lp529
(lp530
(lp531
(lp532
I15
aI11
aI5
aI0
aa(lp533
I0
aI0
aI42
aI0
aa(lp534
I0
aI30
aI0
aI0
aa(lp535
I42
aI0
aI0
aI9
aaaI1
aa(lp536
I0
aI0
aI1
aI0
aaa(lp537
(lp538
(lp539
(lp540
I0
aI0
aI5
aI25
aa(lp541
I47
aI0
aI0
aI0
aa(lp542
I27
aI57
aI21
aI27
aa(lp543
I32
aI0
aI23
aI0
aaaI6
aa(lp544
I0
aI0
aI0
aI1
aaa(lp545
(lp546
(lp547
(lp548
I0
aI10
aI1
aI16
aa(lp549
I50
aI0
aI47
aI0
aa(lp550
I0
aI57
aI57
aI0
aa(lp551
I40
aI0
aI0
aI0
aaaI2
aa(lp552
I0
aI1
aI0
aI0
aaa(lp553
(lp554
(lp555
(lp556
I4
aI37
aI20
aI0
aa(lp557
I0
aI40
aI57
aI0
aa(lp558
I2
aI5
aI0
aI0
aa(lp559
I0
aI0
aI40
aI49
aaaI5
aa(lp560
I0
aI1
aI0
aI0
aaa(lp561
(lp562
(lp563
(lp564
I10
aI0
aI1
aI0
aa(lp565
I2
aI57
aI57
aI57
aa(lp566
I0
aI0
aI0
aI30
aa(lp567
I57
aI57
aI25
aI57
aaaI6
aa(lp568
I0
aI1
aI0
aI0
aaa(lp569
(lp570
(lp571
(lp572
I12
aI9
aI44
aI0
aa(lp573
I0
aI57
aI57
aI57
aa(lp574
I34
aI31
aI0
aI0
aa(lp575
I57
aI57
aI46
aI57
aaaI5
aa(lp576
I0
aI1
aI0
aI0
aaa(lp577
(lp578
(lp579
(lp580
I39
aI0
aI19
aI1
aa(lp581
I31
aI57
aI57
aI57
aa(lp582
I3
aI0
aI0
aI0
aa(lp583
I57
aI57
aI43
aI57
aaaI4
aa(lp584
I1
aI0
aI0
aI0
aaa(lp585
(lp586
(lp587
(lp588
I16
aI0
aI21
aI0
aa(lp589
I25
aI57
aI43
aI14
aa(lp590
I27
aI1
aI41
aI0
aa(lp591
I0
aI0
aI37
aI57
aaaI6
aa(lp592
I0
aI1
aI0
aI0
aaa(lp593
(lp594
(lp595
(lp596
I0
aI10
aI32
aI57
aa(lp597
I0
aI57
aI23
aI0
aa(lp598
I48
aI0
aI27
aI27
aa(lp599
I57
aI47
aI0
aI57
aaaI6
aa(lp600
I1
aI0
aI0
aI0
aaa(lp601
(lp602
(lp603
(lp604
I16
aI20
aI0
aI57
aa(lp605
I14
aI57
aI0
aI0
aa(lp606
I0
aI0
aI10
aI45
aa(lp607
I57
aI21
aI49
aI57
aaaI6
aa(lp608
I0
aI0
aI1
aI0
aaa(lp609
(lp610
(lp611
(lp612
I0
aI44
aI7
aI23
aa(lp613
I57
aI25
aI57
aI57
aa(lp614
I0
aI0
aI39
aI27
aa(lp615
I0
aI0
aI3
aI0
aaaI3
aa(lp616
I0
aI0
aI1
aI0
aaa(lp617
(lp618
(lp619
(lp620
I0
aI0
aI0
aI0
aa(lp621
I0
aI24
aI0
aI0
aa(lp622
I32
aI0
aI43
aI38
aa(lp623
I49
aI22
aI0
aI0
aaaI6
aa(lp624
I1
aI0
aI0
aI0
aaa(lp625
(lp626
(lp627
(lp628
I0
aI0
aI0
aI0
aa(lp629
I0
aI0
aI34
aI0
aa(lp630
I20
aI0
aI0
aI0
aa(lp631
I4
aI0
aI0
aI2
aaaI6
aa(lp632
I1
aI0
aI0
aI0
aaa(lp633
(lp634
(lp635
(lp636
I0
aI1
aI34
aI0
aa(lp637
I0
aI14
aI0
aI0
aa(lp638
I29
aI0
aI0
aI0
aa(lp639
I16
aI39
aI0
aI0
aaaI6
aa(lp640
I1
aI0
aI0
aI0
aaa(lp641
(lp642
(lp643
(lp644
I8
aI0
aI11
aI0
aa(lp645
I0
aI17
aI0
aI0
aa(lp646
I15
aI27
aI34
aI0
aa(lp647
I0
aI0
aI57
aI37
aaaI6
aa(lp648
I0
aI1
aI0
aI0
aaa(lp649
(lp650
(lp651
(lp652
I31
aI31
aI12
aI0
aa(lp653
I57
aI57
aI57
aI24
aa(lp654
I6
aI3
aI57
aI57
aa(lp655
I57
aI57
aI57
aI47
aaaI4
aa(lp656
I0
aI0
aI0
aI1
aaa(lp657
(lp658
(lp659
(lp660
I8
aI0
aI0
aI0
aa(lp661
I57
aI57
aI57
aI0
aa(lp662
I36
aI30
aI57
aI57
aa(lp663
I57
aI57
aI57
aI17
aaaI6
aa(lp664
I0
aI0
aI0
aI1
aaa(lp665
(lp666
(lp667
(lp668
I0
aI0
aI0
aI0
aa(lp669
I0
aI0
aI40
aI27
aa(lp670
I0
aI0
aI10
aI28
aa(lp671
I0
aI35
aI0
aI0
aaaI6
aa(lp672
I0
aI0
aI0
aI1
aaa(lp673
(lp674
(lp675
(lp676
I0
aI3
aI1
aI11
aa(lp677
I0
aI0
aI0
aI28
aa(lp678
I0
aI0
aI0
aI44
aa(lp679
I46
aI51
aI33
aI0
aaaI3
aa(lp680
I0
aI0
aI1
aI0
aaa(lp681
(lp682
(lp683
(lp684
I11
aI21
aI16
aI0
aa(lp685
I0
aI17
aI57
aI38
aa(lp686
I57
aI0
aI7
aI0
aa(lp687
I14
aI0
aI39
aI0
aaaI1
aa(lp688
I1
aI0
aI0
aI0
aaa(lp689
(lp690
(lp691
(lp692
I0
aI40
aI1
aI25
aa(lp693
I20
aI0
aI57
aI47
aa(lp694
I57
aI33
aI0
aI37
aa(lp695
I0
aI7
aI6
aI3
aaaI5
aa(lp696
I0
aI0
aI0
aI1
aaa(lp697
(lp698
(lp699
(lp700
I0
aI1
aI3
aI4
aa(lp701
I0
aI0
aI31
aI36
aa(lp702
I0
aI44
aI0
aI0
aa(lp703
I0
aI39
aI4
aI36
aaaI4
aa(lp704
I0
aI0
aI0
aI1
aaa(lp705
(lp706
(lp707
(lp708
I1
aI57
aI0
aI2
aa(lp709
I16
aI51
aI0
aI0
aa(lp710
I3
aI24
aI0
aI38
aa(lp711
I0
aI39
aI57
aI42
aaaI6
aa(lp712
I0
aI0
aI1
aI0
aaa(lp713
(lp714
(lp715
(lp716
I0
aI0
aI0
aI0
aa(lp717
I14
aI0
aI0
aI0
aa(lp718
I27
aI0
aI0
aI0
aa(lp719
I0
aI0
aI39
aI0
aaaI6
aa(lp720
I1
aI0
aI0
aI0
aaa(lp721
(lp722
(lp723
(lp724
I0
aI0
aI1
aI47
aa(lp725
I45
aI57
aI2
aI57
aa(lp726
I0
aI0
aI19
aI18
aa(lp727
I10
aI21
aI2
aI0
aaaI6
aa(lp728
I1
aI0
aI0
aI0
aaa(lp729
(lp730
(lp731
(lp732
I57
aI31
aI5
aI38
aa(lp733
I57
aI0
aI0
aI0
aa(lp734
I19
aI0
aI0
aI57
aa(lp735
I0
aI41
aI39
aI57
aaaI5
aa(lp736
I0
aI0
aI1
aI0
aaa(lp737
(lp738
(lp739
(lp740
I24
aI0
aI0
aI43
aa(lp741
I14
aI16
aI0
aI40
aa(lp742
I0
aI0
aI0
aI17
aa(lp743
I57
aI0
aI28
aI0
aaaI6
aa(lp744
I0
aI0
aI1
aI0
aaa(lp745
(lp746
(lp747
(lp748
I0
aI7
aI45
aI57
aa(lp749
I17
aI14
aI1
aI0
aa(lp750
I57
aI0
aI42
aI0
aa(lp751
I10
aI57
aI0
aI0
aaaI6
aa(lp752
I1
aI0
aI0
aI0
aaa(lp753
(lp754
(lp755
(lp756
I0
aI22
aI0
aI7
aa(lp757
I0
aI16
aI0
aI29
aa(lp758
I8
aI0
aI46
aI0
aa(lp759
I0
aI48
aI57
aI43
aaaI6
aa(lp760
I1
aI0
aI0
aI0
aaa(lp761
(lp762
(lp763
(lp764
I23
aI48
aI0
aI0
aa(lp765
I0
aI1
aI0
aI8
aa(lp766
I45
aI0
aI35
aI0
aa(lp767
I1
aI0
aI57
aI0
aaaI6
aa(lp768
I0
aI1
aI0
aI0
aaa(lp769
(lp770
(lp771
(lp772
I45
aI16
aI0
aI7
aa(lp773
I0
aI28
aI0
aI40
aa(lp774
I0
aI30
aI0
aI0
aa(lp775
I31
aI0
aI57
aI43
aaaI6
aa(lp776
I0
aI0
aI1
aI0
aaa(lp777
(lp778
(lp779
(lp780
I1
aI0
aI16
aI28
aa(lp781
I57
aI0
aI21
aI57
aa(lp782
I0
aI47
aI57
aI0
aa(lp783
I11
aI38
aI57
aI5
aaaI3
aa(lp784
I1
aI0
aI0
aI0
aaa(lp785
(lp786
(lp787
(lp788
I1
aI2
aI15
aI0
aa(lp789
I0
aI0
aI0
aI35
aa(lp790
I57
aI57
aI21
aI28
aa(lp791
I57
aI6
aI0
aI5
aaaI5
aa(lp792
I0
aI1
aI0
aI0
aaa(lp793
(lp794
(lp795
(lp796
I6
aI7
aI16
aI0
aa(lp797
I0
aI0
aI0
aI42
aa(lp798
I57
aI57
aI35
aI28
aa(lp799
I57
aI0
aI0
aI21
aaaI5
aa(lp800
I1
aI0
aI0
aI0
aaa(lp801
(lp802
(lp803
(lp804
I0
aI57
aI0
aI0
aa(lp805
I16
aI47
aI0
aI24
aa(lp806
I57
aI57
aI27
aI44
aa(lp807
I57
aI57
aI0
aI0
aaaI6
aa(lp808
I1
aI0
aI0
aI0
aaa(lp809
(lp810
(lp811
(lp812
I11
aI57
aI32
aI39
aa(lp813
I0
aI0
aI0
aI21
aa(lp814
I57
aI57
aI44
aI36
aa(lp815
I57
aI57
aI2
aI37
aaaI5
aa(lp816
I1
aI0
aI0
aI0
aaa(lp817
(lp818
(lp819
(lp820
I0
aI1
aI7
aI3
aa(lp821
I18
aI32
aI18
aI20
aa(lp822
I0
aI6
aI39
aI0
aa(lp823
I57
aI57
aI50
aI0
aaaI4
aa(lp824
I0
aI1
aI0
aI0
aaa(lp825
(lp826
(lp827
(lp828
I57
aI41
aI20
aI0
aa(lp829
I0
aI29
aI28
aI0
aa(lp830
I8
aI0
aI48
aI0
aa(lp831
I0
aI0
aI0
aI39
aaaI6
aa(lp832
I0
aI0
aI0
aI1
aaa(lp833
(lp834
(lp835
(lp836
I43
aI57
aI23
aI8
aa(lp837
I0
aI3
aI31
aI30
aa(lp838
I19
aI19
aI26
aI0
aa(lp839
I57
aI0
aI49
aI45
aaaI1
aa(lp840
I0
aI0
aI0
aI1
aaa(lp841
(lp842
(lp843
(lp844
I0
aI0
aI0
aI1
aa(lp845
I44
aI0
aI17
aI0
aa(lp846
I27
aI0
aI57
aI17
aa(lp847
I46
aI30
aI34
aI0
aaaI6
aa(lp848
I0
aI1
aI0
aI0
aaa(lp849
(lp850
(lp851
(lp852
I46
aI15
aI0
aI3
aa(lp853
I57
aI0
aI57
aI39
aa(lp854
I57
aI0
aI57
aI41
aa(lp855
I10
aI57
aI0
aI0
aaaI4
aa(lp856
I0
aI1
aI0
aI0
aaa(lp857
(lp858
(lp859
(lp860
I1
aI0
aI37
aI9
aa(lp861
I0
aI57
aI21
aI3
aa(lp862
I38
aI0
aI27
aI36
aa(lp863
I0
aI0
aI12
aI50
aaaI5
aa(lp864
I0
aI0
aI0
aI1
aaa(lp865
(lp866
(lp867
(lp868
I1
aI30
aI18
aI8
aa(lp869
I57
aI46
aI57
aI57
aa(lp870
I0
aI47
aI34
aI28
aa(lp871
I42
aI43
aI47
aI8
aaaI2
aa(lp872
I0
aI1
aI0
aI0
aaa.