(lp0
(lp1
(lp2
(lp3
(lp4
I0
aI0
aI0
aI0
aa(lp5
I35
aI25
aI21
aI41
aa(lp6
I0
aI16
aI0
aI0
aa(lp7
I6
aI0
aI0
aI57
aaaI6
aa(lp8
I1
aI0
aI0
aI0
aaa(lp9
(lp10
(lp11
(lp12
I11
aI20
aI3
aI57
aa(lp13
I0
aI41
aI0
aI37
aa(lp14
I8
aI29
aI0
aI5
aa(lp15
I0
aI0
aI50
aI0
aaaI2
aa(lp16
I0
aI0
aI1
aI0
aaa(lp17
(lp18
(lp19
(lp20
I0
aI0
aI57
aI44
aa(lp21
I27
aI16
aI24
aI42
aa(lp22
I0
aI0
aI36
aI57
aa(lp23
I0
aI0
aI6
aI12
aaaI6
aa(lp24
I1
aI0
aI0
aI0
aaa(lp25
(lp26
(lp27
(lp28
I21
aI0
aI20
aI1
aa(lp29
I57
aI0
aI57
aI14
aa(lp30
I36
aI6
aI0
aI36
aa(lp31
I8
aI0
aI41
aI0
aaaI2
aa(lp32
I0
aI0
aI0
aI1
aaa(lp33
(lp34
(lp35
(lp36
I1
aI28
aI0
aI13
aa(lp37
I57
aI45
aI57
aI57
aa(lp38
I41
aI43
aI46
aI2
aa(lp39
I0
aI0
aI34
aI0
aaaI6
aa(lp40
I0
aI0
aI1
aI0
aaa(lp41
(lp42
(lp43
(lp44
I16
aI29
aI0
aI0
aa(lp45
I0
aI0
aI0
aI0
aa(lp46
I0
aI43
aI0
aI0
aa(lp47
I0
aI39
aI49
aI40
aaaI6
aa(lp48
I0
aI0
aI0
aI0
aaa(lp49
(lp50
(lp51
(lp52
I13
aI0
aI32
aI36
aa(lp53
I20
aI57
aI0
aI0
aa(lp54
I50
aI0
aI0
aI57
aa(lp55
I0
aI0
aI0
aI13
aaaI2
aa(lp56
I0
aI0
aI0
aI1
aaa(lp57
(lp58
(lp59
(lp60
I10
aI0
aI57
aI18
aa(lp61
I0
aI47
aI0
aI42
aa(lp62
I37
aI57
aI57
aI0
aa(lp63
I57
aI31
aI0
aI0
aaaI6
aa(lp64
I0
aI1
aI0
aI0
aaa(lp65
(lp66
(lp67
(lp68
I25
aI1
aI40
aI0
aa(lp69
I0
aI30
aI23
aI57
aa(lp70
I29
aI0
aI0
aI0
aa(lp71
I0
aI0
aI0
aI0
aaaI2
aa(lp72
I0
aI1
aI0
aI0
aaa(lp73
(lp74
(lp75
(lp76
I23
aI0
aI31
aI24
aa(lp77
I0
aI29
aI14
aI57
aa(lp78
I30
aI0
aI0
aI0
aa(lp79
I0
aI5
aI0
aI0
aaaI4
aa(lp80
I0
aI0
aI0
aI1
aaa(lp81
(lp82
(lp83
(lp84
I0
aI40
aI37
aI57
aa(lp85
I0
aI57
aI0
aI57
aa(lp86
I0
aI51
aI0
aI0
aa(lp87
I19
aI26
aI0
aI10
aaaI6
aa(lp88
I1
aI0
aI0
aI0
aaa(lp89
(lp90
(lp91
(lp92
I33
aI39
aI5
aI57
aa(lp93
I20
aI57
aI0
aI57
aa(lp94
I30
aI57
aI0
aI57
aa(lp95
I11
aI0
aI48
aI0
aaaI3
aa(lp96
I0
aI1
aI0
aI0
aaa(lp97
(lp98
(lp99
(lp100
I28
aI0
aI15
aI10
aa(lp101
I57
aI0
aI0
aI26
aa(lp102
I50
aI30
aI7
aI0
aa(lp103
I39
aI39
aI57
aI0
aaaI5
aa(lp104
I0
aI0
aI0
aI1
aaa(lp105
(lp106
(lp107
(lp108
I38
aI5
aI4
aI0
aa(lp109
I0
aI0
aI27
aI0
aa(lp110
I0
aI50
aI0
aI47
aa(lp111
I57
aI32
aI57
aI39
aaaI1
aa(lp112
I1
aI0
aI0
aI0
aaa(lp113
(lp114
(lp115
(lp116
I0
aI5
aI0
aI37
aa(lp117
I57
aI17
aI57
aI3
aa(lp118
I0
aI27
aI26
aI57
aa(lp119
I39
aI31
aI48
aI29
aaaI6
aa(lp120
I0
aI0
aI1
aI0
aaa(lp121
(lp122
(lp123
(lp124
I0
aI13
aI1
aI7
aa(lp125
I21
aI21
aI20
aI0
aa(lp126
I15
aI0
aI0
aI0
aa(lp127
I3
aI38
aI17
aI24
aaaI2
aa(lp128
I0
aI0
aI0
aI1
aaa(lp129
(lp130
(lp131
(lp132
I25
aI0
aI25
aI12
aa(lp133
I34
aI24
aI57
aI16
aa(lp134
I0
aI57
aI42
aI43
aa(lp135
I3
aI39
aI0
aI0
aaaI3
aa(lp136
I0
aI0
aI0
aI1
aaa(lp137
(lp138
(lp139
(lp140
I0
aI0
aI21
aI1
aa(lp141
I0
aI16
aI0
aI0
aa(lp142
I16
aI33
aI38
aI0
aa(lp143
I0
aI9
aI10
aI17
aaaI6
aa(lp144
I0
aI0
aI0
aI1
aaa(lp145
(lp146
(lp147
(lp148
I57
aI47
aI7
aI27
aa(lp149
I0
aI6
aI27
aI0
aa(lp150
I41
aI13
aI44
aI0
aa(lp151
I0
aI0
aI37
aI23
aaaI1
aa(lp152
I0
aI0
aI1
aI0
aaa(lp153
(lp154
(lp155
(lp156
I31
aI18
aI0
aI18
aa(lp157
I0
aI57
aI0
aI0
aa(lp158
I57
aI57
aI45
aI57
aa(lp159
I0
aI0
aI10
aI43
aaaI6
aa(lp160
I0
aI0
aI1
aI0
aaa(lp161
(lp162
(lp163
(lp164
I1
aI42
aI36
aI57
aa(lp165
I0
aI0
aI0
aI33
aa(lp166
I0
aI0
aI27
aI4
aa(lp167
I0
aI0
aI13
aI7
aaaI3
aa(lp168
I1
aI0
aI0
aI0
aaa(lp169
(lp170
(lp171
(lp172
I0
aI0
aI35
aI0
aa(lp173
I0
aI7
aI0
aI57
aa(lp174
I57
aI33
aI0
aI42
aa(lp175
I9
aI39
aI0
aI0
aaaI6
aa(lp176
I0
aI0
aI1
aI0
aaa(lp177
(lp178
(lp179
(lp180
I0
aI0
aI52
aI0
aa(lp181
I0
aI0
aI0
aI57
aa(lp182
I57
aI57
aI0
aI19
aa(lp183
I48
aI57
aI0
aI0
aaaI6
aa(lp184
I0
aI0
aI1
aI0
aaa(lp185
(lp186
(lp187
(lp188
I4
aI18
aI0
aI19
aa(lp189
I15
aI14
aI23
aI0
aa(lp190
I27
aI33
aI49
aI30
aa(lp191
I0
aI46
aI49
aI11
aaaI5
aa(lp192
I0
aI0
aI0
aI1
aaa(lp193
(lp194
(lp195
(lp196
I0
aI11
aI29
aI35
aa(lp197
I0
aI0
aI41
aI10
aa(lp198
I30
aI0
aI57
aI0
aa(lp199
I0
aI0
aI39
aI57
aaaI6
aa(lp200
I1
aI0
aI0
aI0
aaa(lp201
(lp202
(lp203
(lp204
I0
aI29
aI21
aI40
aa(lp205
I18
aI14
aI0
aI0
aa(lp206
I0
aI45
aI57
aI3
aa(lp207
I0
aI0
aI0
aI57
aaaI3
aa(lp208
I0
aI0
aI0
aI1
aaa(lp209
(lp210
(lp211
(lp212
I3
aI5
aI1
aI0
aa(lp213
I31
aI0
aI6
aI36
aa(lp214
I27
aI57
aI41
aI57
aa(lp215
I0
aI41
aI17
aI0
aaaI2
aa(lp216
I1
aI0
aI0
aI0
aaa(lp217
(lp218
(lp219
(lp220
I23
aI12
aI29
aI0
aa(lp221
I50
aI0
aI13
aI43
aa(lp222
I13
aI57
aI0
aI57
aa(lp223
I51
aI0
aI0
aI39
aaaI4
aa(lp224
I1
aI0
aI0
aI0
aaa(lp225
(lp226
(lp227
(lp228
I17
aI28
aI0
aI0
aa(lp229
I13
aI0
aI0
aI0
aa(lp230
I21
aI57
aI57
aI57
aa(lp231
I57
aI11
aI49
aI0
aaaI6
aa(lp232
I1
aI0
aI0
aI0
aaa(lp233
(lp234
(lp235
(lp236
I0
aI20
aI1
aI3
aa(lp237
I34
aI0
aI0
aI0
aa(lp238
I33
aI11
aI0
aI0
aa(lp239
I0
aI0
aI0
aI0
aaaI1
aa(lp240
I0
aI0
aI1
aI0
aaa(lp241
(lp242
(lp243
(lp244
I12
aI0
aI30
aI0
aa(lp245
I0
aI0
aI0
aI6
aa(lp246
I57
aI9
aI41
aI27
aa(lp247
I0
aI57
aI42
aI40
aaaI6
aa(lp248
I0
aI0
aI1
aI0
aaa(lp249
(lp250
(lp251
(lp252
I0
aI44
aI20
aI20
aa(lp253
I21
aI0
aI24
aI0
aa(lp254
I57
aI51
aI57
aI57
aa(lp255
I3
aI57
aI57
aI0
aaaI6
aa(lp256
I1
aI0
aI0
aI0
aaa(lp257
(lp258
(lp259
(lp260
I29
aI0
aI0
aI0
aa(lp261
I0
aI0
aI0
aI0
aa(lp262
I0
aI0
aI47
aI0
aa(lp263
I0
aI39
aI0
aI1
aaaI6
aa(lp264
I0
aI1
aI0
aI0
aaa(lp265
(lp266
(lp267
(lp268
I17
aI0
aI0
aI57
aa(lp269
I0
aI26
aI6
aI0
aa(lp270
I0
aI51
aI31
aI0
aa(lp271
I0
aI0
aI39
aI0
aaaI6
aa(lp272
I0
aI1
aI0
aI0
aaa(lp273
(lp274
(lp275
(lp276
I15
aI0
aI0
aI0
aa(lp277
I0
aI28
aI0
aI0
aa(lp278
I0
aI0
aI0
aI46
aa(lp279
I0
aI39
aI51
aI0
aaaI6
aa(lp280
I0
aI0
aI0
aI1
aaa(lp281
(lp282
(lp283
(lp284
I0
aI38
aI7
aI20
aa(lp285
I0
aI0
aI17
aI0
aa(lp286
I41
aI0
aI13
aI57
aa(lp287
I0
aI0
aI0
aI0
aaaI4
aa(lp288
I0
aI1
aI0
aI0
aaa(lp289
(lp290
(lp291
(lp292
I0
aI27
aI26
aI3
aa(lp293
I0
aI0
aI17
aI0
aa(lp294
I29
aI49
aI0
aI57
aa(lp295
I13
aI0
aI14
aI0
aaaI4
aa(lp296
I0
aI0
aI0
aI1
aaa(lp297
(lp298
(lp299
(lp300
I16
aI21
aI35
aI0
aa(lp301
I40
aI0
aI57
aI0
aa(lp302
I57
aI43
aI0
aI57
aa(lp303
I0
aI19
aI57
aI51
aaaI6
aa(lp304
I0
aI0
aI0
aI1
aaa(lp305
(lp306
(lp307
(lp308
I45
aI4
aI0
aI0
aa(lp309
I0
aI0
aI30
aI0
aa(lp310
I37
aI0
aI5
aI43
aa(lp311
I27
aI39
aI0
aI0
aaaI6
aa(lp312
I0
aI0
aI1
aI0
aaa(lp313
(lp314
(lp315
(lp316
I18
aI23
aI46
aI57
aa(lp317
I0
aI0
aI0
aI14
aa(lp318
I28
aI0
aI0
aI27
aa(lp319
I44
aI0
aI57
aI49
aaaI1
aa(lp320
I0
aI1
aI0
aI0
aaa(lp321
(lp322
(lp323
(lp324
I0
aI27
aI0
aI2
aa(lp325
I57
aI0
aI0
aI36
aa(lp326
I0
aI10
aI0
aI19
aa(lp327
I57
aI0
aI0
aI43
aaaI6
aa(lp328
I1
aI0
aI0
aI0
aaa(lp329
(lp330
(lp331
(lp332
I0
aI2
aI0
aI57
aa(lp333
I8
aI0
aI41
aI0
aa(lp334
I0
aI12
aI0
aI19
aa(lp335
I45
aI41
aI39
aI0
aaaI6
aa(lp336
I1
aI0
aI0
aI0
aaa(lp337
(lp338
(lp339
(lp340
I1
aI28
aI1
aI57
aa(lp341
I57
aI0
aI43
aI18
aa(lp342
I3
aI27
aI31
aI0
aa(lp343
I0
aI0
aI0
aI0
aaaI3
aa(lp344
I1
aI0
aI0
aI0
aaa(lp345
(lp346
(lp347
(lp348
I21
aI0
aI4
aI0
aa(lp349
I37
aI0
aI25
aI0
aa(lp350
I0
aI0
aI42
aI0
aa(lp351
I0
aI46
aI0
aI42
aaaI6
aa(lp352
I0
aI0
aI1
aI0
aaa(lp353
(lp354
(lp355
(lp356
I10
aI0
aI7
aI20
aa(lp357
I34
aI51
aI0
aI57
aa(lp358
I42
aI0
aI57
aI57
aa(lp359
I0
aI0
aI0
aI12
aaaI4
aa(lp360
I0
aI0
aI1
aI0
aaa(lp361
(lp362
(lp363
(lp364
I21
aI0
aI26
aI29
aa(lp365
I37
aI21
aI14
aI57
aa(lp366
I0
aI0
aI57
aI57
aa(lp367
I39
aI0
aI6
aI0
aaaI6
aa(lp368
I0
aI1
aI0
aI0
aaa(lp369
(lp370
(lp371
(lp372
I0
aI57
aI10
aI0
aa(lp373
I57
aI57
aI0
aI14
aa(lp374
I0
aI0
aI0
aI19
aa(lp375
I0
aI31
aI0
aI0
aaaI6
aa(lp376
I1
aI0
aI0
aI0
aaa(lp377
(lp378
(lp379
(lp380
I0
aI32
aI7
aI56
aa(lp381
I0
aI0
aI21
aI0
aa(lp382
I27
aI0
aI57
aI18
aa(lp383
I0
aI47
aI57
aI42
aaaI6
aa(lp384
I1
aI0
aI0
aI0
aaa(lp385
(lp386
(lp387
(lp388
I0
aI0
aI1
aI1
aa(lp389
I0
aI21
aI4
aI0
aa(lp390
I0
aI30
aI0
aI0
aa(lp391
I0
aI38
aI22
aI0
aaaI6
aa(lp392
I1
aI0
aI0
aI0
aaa(lp393
(lp394
(lp395
(lp396
I0
aI50
aI7
aI21
aa(lp397
I0
aI0
aI24
aI0
aa(lp398
I0
aI0
aI0
aI42
aa(lp399
I35
aI3
aI0
aI50
aaaI2
aa(lp400
I0
aI0
aI1
aI0
aaa(lp401
(lp402
(lp403
(lp404
I33
aI26
aI0
aI1
aa(lp405
I20
aI0
aI14
aI18
aa(lp406
I0
aI16
aI0
aI44
aa(lp407
I0
aI0
aI0
aI6
aaaI3
aa(lp408
I0
aI0
aI0
aI1
aaa(lp409
(lp410
(lp411
(lp412
I1
aI40
aI12
aI0
aa(lp413
I0
aI35
aI0
aI14
aa(lp414
I0
aI28
aI4
aI32
aa(lp415
I31
aI0
aI57
aI0
aaaI4
aa(lp416
I1
aI0
aI0
aI0
aaa(lp417
(lp418
(lp419
(lp420
I0
aI28
aI0
aI0
aa(lp421
I57
aI57
aI0
aI0
aa(lp422
I57
aI0
aI0
aI38
aa(lp423
I3
aI40
aI57
aI0
aaaI6
aa(lp424
I0
aI1
aI0
aI0
aaa(lp425
(lp426
(lp427
(lp428
I0
aI18
aI0
aI0
aa(lp429
I43
aI57
aI0
aI28
aa(lp430
I0
aI35
aI0
aI0
aa(lp431
I4
aI0
aI31
aI0
aaaI6
aa(lp432
I1
aI0
aI0
aI0
aaa(lp433
(lp434
(lp435
(lp436
I7
aI1
aI49
aI12
aa(lp437
I0
aI23
aI57
aI0
aa(lp438
I57
aI57
aI57
aI16
aa(lp439
I33
aI57
aI28
aI57
aaaI1
aa(lp440
I0
aI0
aI1
aI0
aaa(lp441
(lp442
(lp443
(lp444
I37
aI0
aI5
aI1
aa(lp445
I0
aI0
aI48
aI34
aa(lp446
I18
aI57
aI7
aI57
aa(lp447
I0
aI0
aI0
aI32
aaaI6
aa(lp448
I0
aI1
aI0
aI0
aaa(lp449
(lp450
(lp451
(lp452
I43
aI5
aI0
aI1
aa(lp453
I0
aI0
aI1
aI47
aa(lp454
I25
aI57
aI16
aI57
aa(lp455
I0
aI0
aI0
aI37
aaaI1
aa(lp456
I0
aI1
aI0
aI0
aaa(lp457
(lp458
(lp459
(lp460
I0
aI18
aI25
aI3
aa(lp461
I0
aI39
aI1
aI0
aa(lp462
I57
aI57
aI29
aI57
aa(lp463
I41
aI43
aI0
aI40
aaaI4
aa(lp464
I0
aI0
aI0
aI1
aaa(lp465
(lp466
(lp467
(lp468
I38
aI0
aI3
aI0
aa(lp469
I57
aI0
aI14
aI57
aa(lp470
I11
aI27
aI27
aI26
aa(lp471
I22
aI0
aI0
aI0
aaaI6
aa(lp472
I0
aI1
aI0
aI0
aaa(lp473
(lp474
(lp475
(lp476
I11
aI9
aI0
aI48
aa(lp477
I57
aI57
aI9
aI57
aa(lp478
I57
aI0
aI27
aI24
aa(lp479
I0
aI13
aI0
aI0
aaaI1
aa(lp480
I1
aI0
aI0
aI0
aaa(lp481
(lp482
(lp483
(lp484
I28
aI1
aI32
aI57
aa(lp485
I0
aI0
aI0
aI44
aa(lp486
I12
aI0
aI0
aI0
aa(lp487
I2
aI0
aI0
aI0
aaaI1
aa(lp488
I0
aI0
aI0
aI1
aaa(lp489
(lp490
(lp491
(lp492
I3
aI38
aI57
aI1
aa(lp493
I22
aI0
aI0
aI10
aa(lp494
I0
aI0
aI57
aI25
aa(lp495
I43
aI45
aI0
aI3
aaaI3
aa(lp496
I0
aI0
aI0
aI1
aaa(lp497
(lp498
(lp499
(lp500
I16
aI13
aI0
aI16
aa(lp501
I0
aI31
aI14
aI0
aa(lp502
I0
aI0
aI0
aI8
aa(lp503
I0
aI50
aI39
aI0
aaaI3
aa(lp504
I0
aI1
aI0
aI0
aaa(lp505
(lp506
(lp507
(lp508
I0
aI57
aI23
aI0
aa(lp509
I0
aI30
aI0
aI50
aa(lp510
I12
aI12
aI3
aI0
aa(lp511
I6
aI0
aI57
aI9
aaaI6
aa(lp512
I1
aI0
aI0
aI0
aaa(lp513
(lp514
(lp515
(lp516
I0
aI57
aI27
aI0
aa(lp517
I18
aI0
aI0
aI0
aa(lp518
I0
aI0
aI43
aI0
aa(lp519
I8
aI0
aI57
aI40
aaaI6
aa(lp520
I1
aI0
aI0
aI0
aaa(lp521
(lp522
(lp523
(lp524
I0
aI57
aI0
aI19
aa(lp525
I0
aI0
aI57
aI57
aa(lp526
I57
aI29
aI0
aI57
aa(lp527
I0
aI50
aI57
aI42
aaaI6
aa(lp528
I1
aI0
aI0
aI0
aaa(lp529
(lp530
(lp531
(lp532
I1
aI12
aI20
aI51
aa(lp533
I0
aI0
aI0
aI0
aa(lp534
I42
aI15
aI0
aI39
aa(lp535
I10
aI23
aI0
aI39
aaaI2
aa(lp536
I0
aI1
aI0
aI0
aaa(lp537
(lp538
(lp539
(lp540
I12
aI0
aI0
aI0
aa(lp541
I0
aI0
aI0
aI26
aa(lp542
I0
aI42
aI30
aI44
aa(lp543
I57
aI0
aI0
aI34
aaaI6
aa(lp544
I0
aI1
aI0
aI0
aaa(lp545
(lp546
(lp547
(lp548
I12
aI7
aI13
aI37
aa(lp549
I44
aI0
aI0
aI20
aa(lp550
I0
aI0
aI34
aI33
aa(lp551
I0
aI57
aI26
aI39
aaaI1
aa(lp552
I0
aI0
aI0
aI1
aaa(lp553
(lp554
(lp555
(lp556
I0
aI45
aI2
aI1
aa(lp557
I22
aI11
aI0
aI0
aa(lp558
I57
aI49
aI0
aI57
aa(lp559
I45
aI0
aI0
aI0
aaaI2
aa(lp560
I0
aI0
aI0
aI1
aaa(lp561
(lp562
(lp563
(lp564
I0
aI30
aI0
aI24
aa(lp565
I0
aI49
aI20
aI14
aa(lp566
I0
aI46
aI0
aI23
aa(lp567
I11
aI4
aI0
aI0
aaaI6
aa(lp568
I1
aI0
aI0
aI0
aaa(lp569
(lp570
(lp571
(lp572
I49
aI0
aI31
aI13
aa(lp573
I14
aI0
aI16
aI20
aa(lp574
I0
aI8
aI0
aI0
aa(lp575
I0
aI0
aI0
aI0
aaaI2
aa(lp576
I0
aI0
aI0
aI1
aaa(lp577
(lp578
(lp579
(lp580
I0
aI1
aI0
aI0
aa(lp581
I57
aI6
aI31
aI57
aa(lp582
I57
aI0
aI27
aI31
aa(lp583
I32
aI14
aI57
aI0
aaaI6
aa(lp584
I0
aI1
aI0
aI0
aaa(lp585
(lp586
(lp587
(lp588
I0
aI1
aI7
aI16
aa(lp589
I57
aI45
aI0
aI57
aa(lp590
I57
aI0
aI57
aI18
aa(lp591
I42
aI41
aI57
aI45
aaaI3
aa(lp592
I0
aI0
aI0
aI1
aaa(lp593
(lp594
(lp595
(lp596
I13
aI57
aI1
aI20
aa(lp597
I57
aI14
aI20
aI57
aa(lp598
I57
aI3
aI57
aI57
aa(lp599
I0
aI0
aI57
aI0
aaaI6
aa(lp600
I1
aI0
aI0
aI0
aaa(lp601
(lp602
(lp603
(lp604
I4
aI8
aI0
aI1
aa(lp605
I17
aI0
aI35
aI0
aa(lp606
I57
aI27
aI50
aI57
aa(lp607
I39
aI0
aI0
aI0
aaaI1
aa(lp608
I0
aI0
aI0
aI1
aaa(lp609
(lp610
(lp611
(lp612
I8
aI39
aI0
aI20
aa(lp613
I0
aI0
aI21
aI0
aa(lp614
I0
aI57
aI40
aI0
aa(lp615
I57
aI25
aI25
aI50
aaaI3
aa(lp616
I1
aI0
aI0
aI0
aaa(lp617
(lp618
(lp619
(lp620
I14
aI31
aI39
aI57
aa(lp621
I0
aI0
aI0
aI6
aa(lp622
I0
aI0
aI20
aI30
aa(lp623
I0
aI0
aI39
aI39
aaaI6
aa(lp624
I1
aI0
aI0
aI0
aaa(lp625
(lp626
(lp627
(lp628
I0
aI37
aI0
aI0
aa(lp629
I20
aI0
aI0
aI0
aa(lp630
I44
aI57
aI36
aI16
aa(lp631
I0
aI0
aI0
aI9
aaaI6
aa(lp632
I0
aI1
aI0
aI0
aaa(lp633
(lp634
(lp635
(lp636
I19
aI19
aI0
aI1
aa(lp637
I0
aI35
aI38
aI0
aa(lp638
I57
aI57
aI48
aI0
aa(lp639
I0
aI0
aI49
aI0
aaaI2
aa(lp640
I1
aI0
aI0
aI0
aaa(lp641
(lp642
(lp643
(lp644
I57
aI0
aI0
aI0
aa(lp645
I14
aI0
aI4
aI45
aa(lp646
I0
aI27
aI0
aI38
aa(lp647
I18
aI57
aI57
aI49
aaaI6
aa(lp648
I0
aI1
aI0
aI0
aaa(lp649
(lp650
(lp651
(lp652
I0
aI57
aI0
aI12
aa(lp653
I0
aI30
aI3
aI57
aa(lp654
I0
aI35
aI20
aI48
aa(lp655
I45
aI24
aI57
aI57
aaaI6
aa(lp656
I0
aI0
aI0
aI1
aaa(lp657
(lp658
(lp659
(lp660
I0
aI0
aI0
aI1
aa(lp661
I57
aI27
aI0
aI0
aa(lp662
I57
aI0
aI40
aI8
aa(lp663
I0
aI57
aI0
aI12
aaaI6
aa(lp664
I0
aI0
aI0
aI1
aaa(lp665
(lp666
(lp667
(lp668
I18
aI4
aI0
aI22
aa(lp669
I17
aI7
aI14
aI0
aa(lp670
I11
aI35
aI0
aI0
aa(lp671
I0
aI39
aI12
aI40
aaaI5
aa(lp672
I0
aI1
aI0
aI0
aaa(lp673
(lp674
(lp675
(lp676
I3
aI57
aI0
aI0
aa(lp677
I57
aI1
aI17
aI57
aa(lp678
I29
aI0
aI57
aI41
aa(lp679
I15
aI47
aI4
aI0
aaaI6
aa(lp680
I1
aI0
aI0
aI0
aaa(lp681
(lp682
(lp683
(lp684
I18
aI57
aI36
aI44
aa(lp685
I57
aI27
aI0
aI0
aa(lp686
I0
aI0
aI40
aI0
aa(lp687
I0
aI0
aI5
aI0
aaaI2
aa(lp688
I0
aI0
aI1
aI0
aaa(lp689
(lp690
(lp691
(lp692
I2
aI27
aI0
aI0
aa(lp693
I0
aI0
aI20
aI0
aa(lp694
I0
aI0
aI37
aI0
aa(lp695
I45
aI7
aI43
aI0
aaaI6
aa(lp696
I0
aI0
aI0
aI0
aaa(lp697
(lp698
(lp699
(lp700
I2
aI27
aI0
aI1
aa(lp701
I0
aI0
aI21
aI0
aa(lp702
I0
aI0
aI40
aI0
aa(lp703
I49
aI7
aI43
aI0
aaaI1
aa(lp704
I1
aI0
aI0
aI0
aaa(lp705
(lp706
(lp707
(lp708
I29
aI17
aI0
aI1
aa(lp709
I57
aI51
aI45
aI0
aa(lp710
I0
aI57
aI27
aI30
aa(lp711
I0
aI39
aI42
aI12
aaaI5
aa(lp712
I0
aI0
aI0
aI0
aaa(lp713
(lp714
(lp715
(lp716
I0
aI4
aI1
aI50
aa(lp717
I22
aI0
aI57
aI23
aa(lp718
I36
aI57
aI46
aI0
aa(lp719
I57
aI57
aI37
aI57
aaaI1
aa(lp720
I0
aI0
aI0
aI1
aaa.