(lp0
(lp1
(lp2
(lp3
I35
aI0
aI19
aI4
aa(lp4
I11
aI0
aI0
aI57
aa(lp5
I33
aI0
aI51
aI0
aa(lp6
I57
aI57
aI26
aI0
aaaI2
aa(lp7
(lp8
(lp9
I0
aI13
aI8
aI20
aa(lp10
I0
aI0
aI43
aI57
aa(lp11
I57
aI27
aI21
aI27
aa(lp12
I57
aI57
aI0
aI10
aaaI1
aa(lp13
(lp14
(lp15
I27
aI1
aI0
aI4
aa(lp16
I25
aI0
aI14
aI7
aa(lp17
I0
aI0
aI0
aI5
aa(lp18
I0
aI0
aI43
aI16
aaaI3
aa(lp19
(lp20
(lp21
I9
aI1
aI0
aI36
aa(lp22
I57
aI28
aI14
aI0
aa(lp23
I15
aI2
aI57
aI0
aa(lp24
I57
aI5
aI57
aI57
aaaI6
aa(lp25
(lp26
(lp27
I0
aI10
aI45
aI0
aa(lp28
I0
aI26
aI23
aI0
aa(lp29
I42
aI0
aI0
aI0
aa(lp30
I3
aI0
aI0
aI15
aaaI6
aa(lp31
(lp32
(lp33
I14
aI0
aI10
aI3
aa(lp34
I24
aI57
aI38
aI34
aa(lp35
I0
aI0
aI57
aI0
aa(lp36
I16
aI4
aI39
aI0
aaaI3
aa(lp37
(lp38
(lp39
I33
aI35
aI1
aI50
aa(lp40
I23
aI57
aI39
aI0
aa(lp41
I27
aI0
aI57
aI24
aa(lp42
I50
aI0
aI39
aI0
aaaI4
aa(lp43
(lp44
(lp45
I9
aI1
aI18
aI0
aa(lp46
I50
aI0
aI0
aI7
aa(lp47
I33
aI0
aI0
aI27
aa(lp48
I13
aI39
aI50
aI33
aaaI6
aa(lp49
(lp50
(lp51
I0
aI0
aI0
aI42
aa(lp52
I0
aI0
aI1
aI0
aa(lp53
I38
aI0
aI0
aI33
aa(lp54
I0
aI11
aI0
aI57
aaaI6
aa(lp55
(lp56
(lp57
I0
aI0
aI30
aI0
aa(lp58
I27
aI57
aI57
aI57
aa(lp59
I0
aI40
aI0
aI0
aa(lp60
I57
aI33
aI0
aI57
aaaI6
aa(lp61
(lp62
(lp63
I8
aI26
aI7
aI14
aa(lp64
I14
aI41
aI0
aI30
aa(lp65
I5
aI0
aI0
aI0
aa(lp66
I0
aI0
aI15
aI0
aaaI5
aa(lp67
(lp68
(lp69
I9
aI43
aI57
aI10
aa(lp70
I57
aI0
aI49
aI57
aa(lp71
I27
aI21
aI0
aI24
aa(lp72
I57
aI0
aI0
aI7
aaaI1
aa(lp73
(lp74
(lp75
I7
aI0
aI0
aI37
aa(lp76
I0
aI18
aI37
aI0
aa(lp77
I0
aI57
aI28
aI33
aa(lp78
I40
aI4
aI45
aI48
aaaI6
aa(lp79
(lp80
(lp81
I7
aI4
aI14
aI40
aa(lp82
I0
aI2
aI33
aI0
aa(lp83
I57
aI0
aI35
aI27
aa(lp84
I57
aI0
aI0
aI21
aaaI5
aa(lp85
(lp86
(lp87
I9
aI17
aI24
aI0
aa(lp88
I12
aI0
aI0
aI14
aa(lp89
I0
aI0
aI0
aI7
aa(lp90
I0
aI47
aI39
aI0
aaaI6
aa(lp91
(lp92
(lp93
I0
aI0
aI0
aI0
aa(lp94
I29
aI3
aI57
aI0
aa(lp95
I0
aI0
aI0
aI0
aa(lp96
I0
aI45
aI41
aI22
aaaI6
aa(lp97
(lp98
(lp99
I9
aI42
aI57
aI7
aa(lp100
I33
aI57
aI50
aI23
aa(lp101
I0
aI0
aI0
aI47
aa(lp102
I0
aI0
aI0
aI0
aaaI6
aa(lp103
(lp104
(lp105
I0
aI33
aI2
aI36
aa(lp106
I0
aI0
aI0
aI49
aa(lp107
I0
aI26
aI38
aI0
aa(lp108
I0
aI0
aI0
aI0
aaaI3
aa(lp109
(lp110
(lp111
I12
aI0
aI0
aI0
aa(lp112
I2
aI40
aI57
aI57
aa(lp113
I36
aI0
aI31
aI29
aa(lp114
I9
aI38
aI57
aI0
aaaI6
aa(lp115
(lp116
(lp117
I46
aI0
aI57
aI1
aa(lp118
I0
aI37
aI20
aI0
aa(lp119
I40
aI0
aI0
aI0
aa(lp120
I57
aI0
aI35
aI0
aaaI6
aa(lp121
(lp122
(lp123
I0
aI41
aI2
aI3
aa(lp124
I0
aI31
aI35
aI14
aa(lp125
I57
aI27
aI0
aI47
aa(lp126
I15
aI0
aI3
aI0
aaaI5
aa(lp127
(lp128
(lp129
I0
aI57
aI5
aI0
aa(lp130
I16
aI14
aI0
aI11
aa(lp131
I57
aI45
aI38
aI4
aa(lp132
I0
aI46
aI2
aI0
aaaI6
aa(lp133
(lp134
(lp135
I24
aI57
aI23
aI1
aa(lp136
I37
aI57
aI57
aI57
aa(lp137
I57
aI57
aI0
aI44
aa(lp138
I47
aI57
aI57
aI47
aaaI4
aa(lp139
(lp140
(lp141
I0
aI57
aI7
aI1
aa(lp142
I49
aI57
aI57
aI57
aa(lp143
I57
aI57
aI33
aI57
aa(lp144
I49
aI57
aI57
aI0
aaaI6
aa(lp145
(lp146
(lp147
I7
aI8
aI19
aI0
aa(lp148
I0
aI24
aI0
aI0
aa(lp149
I47
aI27
aI38
aI0
aa(lp150
I0
aI4
aI0
aI0
aaaI4
aa(lp151
(lp152
(lp153
I0
aI0
aI0
aI0
aa(lp154
I57
aI33
aI4
aI57
aa(lp155
I0
aI47
aI0
aI46
aa(lp156
I0
aI57
aI57
aI16
aaaI6
aa(lp157
(lp158
(lp159
I0
aI0
aI42
aI43
aa(lp160
I51
aI0
aI0
aI0
aa(lp161
I19
aI0
aI12
aI0
aa(lp162
I14
aI0
aI0
aI49
aaaI6
aa(lp163
(lp164
(lp165
I1
aI27
aI3
aI0
aa(lp166
I0
aI0
aI33
aI0
aa(lp167
I0
aI0
aI39
aI17
aa(lp168
I0
aI46
aI0
aI50
aaaI5
aa(lp169
(lp170
(lp171
I0
aI13
aI18
aI8
aa(lp172
I6
aI24
aI0
aI26
aa(lp173
I0
aI3
aI4
aI0
aa(lp174
I0
aI0
aI0
aI9
aaaI2
aa(lp175
(lp176
(lp177
I0
aI57
aI0
aI13
aa(lp178
I0
aI57
aI11
aI0
aa(lp179
I0
aI0
aI27
aI0
aa(lp180
I0
aI0
aI46
aI0
aaaI6
aa(lp181
(lp182
(lp183
I0
aI57
aI0
aI36
aa(lp184
I14
aI57
aI0
aI0
aa(lp185
I5
aI0
aI0
aI12
aa(lp186
I39
aI37
aI51
aI26
aaaI6
aa(lp187
(lp188
(lp189
I0
aI13
aI39
aI5
aa(lp190
I0
aI0
aI0
aI50
aa(lp191
I0
aI57
aI0
aI7
aa(lp192
I24
aI0
aI39
aI1
aaaI5
aa(lp193
(lp194
(lp195
I57
aI12
aI12
aI0
aa(lp196
I34
aI0
aI42
aI14
aa(lp197
I25
aI0
aI57
aI0
aa(lp198
I50
aI0
aI0
aI0
aaaI6
aa(lp199
(lp200
(lp201
I57
aI23
aI33
aI1
aa(lp202
I0
aI41
aI0
aI0
aa(lp203
I57
aI38
aI57
aI0
aa(lp204
I2
aI2
aI39
aI0
aaaI5
aa(lp205
(lp206
(lp207
I0
aI0
aI0
aI8
aa(lp208
I14
aI0
aI0
aI0
aa(lp209
I36
aI36
aI0
aI0
aa(lp210
I0
aI0
aI6
aI0
aaaI6
aa(lp211
(lp212
(lp213
I30
aI4
aI57
aI8
aa(lp214
I35
aI0
aI14
aI0
aa(lp215
I5
aI27
aI0
aI0
aa(lp216
I0
aI40
aI35
aI42
aaaI4
aa(lp217
(lp218
(lp219
I1
aI29
aI57
aI0
aa(lp220
I29
aI57
aI57
aI0
aa(lp221
I0
aI30
aI7
aI0
aa(lp222
I18
aI0
aI0
aI0
aaaI6
aa(lp223
(lp224
(lp225
I13
aI6
aI57
aI9
aa(lp226
I30
aI57
aI57
aI43
aa(lp227
I24
aI27
aI57
aI0
aa(lp228
I0
aI51
aI0
aI0
aaaI1
aa(lp229
(lp230
(lp231
I18
aI1
aI57
aI43
aa(lp232
I35
aI57
aI57
aI13
aa(lp233
I27
aI57
aI57
aI0
aa(lp234
I13
aI32
aI39
aI45
aaaI2
aa(lp235
(lp236
(lp237
I29
aI43
aI57
aI5
aa(lp238
I15
aI57
aI57
aI15
aa(lp239
I0
aI57
aI57
aI22
aa(lp240
I43
aI31
aI0
aI0
aaaI2
aa(lp241
(lp242
(lp243
I19
aI0
aI16
aI39
aa(lp244
I0
aI36
aI57
aI14
aa(lp245
I31
aI0
aI0
aI29
aa(lp246
I0
aI57
aI0
aI3
aaaI2
aa(lp247
(lp248
(lp249
I3
aI0
aI0
aI14
aa(lp250
I0
aI40
aI57
aI47
aa(lp251
I27
aI0
aI43
aI0
aa(lp252
I0
aI57
aI16
aI29
aaaI6
aa(lp253
(lp254
(lp255
I1
aI10
aI0
aI0
aa(lp256
I0
aI0
aI57
aI37
aa(lp257
I18
aI57
aI57
aI27
aa(lp258
I57
aI57
aI57
aI45
aaaI6
aa(lp259
(lp260
(lp261
I0
aI0
aI57
aI0
aa(lp262
I17
aI0
aI0
aI31
aa(lp263
I57
aI25
aI0
aI57
aa(lp264
I0
aI57
aI50
aI43
aaaI6
aa(lp265
(lp266
(lp267
I0
aI57
aI0
aI0
aa(lp268
I0
aI33
aI0
aI3
aa(lp269
I0
aI45
aI0
aI0
aa(lp270
I11
aI57
aI57
aI17
aaaI6
aa(lp271
(lp272
(lp273
I5
aI0
aI0
aI44
aa(lp274
I0
aI0
aI0
aI36
aa(lp275
I0
aI0
aI0
aI0
aa(lp276
I31
aI0
aI0
aI1
aaaI6
aa(lp277
(lp278
(lp279
I12
aI1
aI0
aI36
aa(lp280
I0
aI0
aI8
aI0
aa(lp281
I0
aI27
aI23
aI0
aa(lp282
I47
aI57
aI1
aI48
aaaI5
aa(lp283
(lp284
(lp285
I4
aI0
aI45
aI57
aa(lp286
I45
aI57
aI46
aI0
aa(lp287
I57
aI57
aI57
aI28
aa(lp288
I57
aI57
aI0
aI39
aaaI6
aa(lp289
(lp290
(lp291
I0
aI0
aI0
aI0
aa(lp292
I0
aI0
aI0
aI26
aa(lp293
I0
aI0
aI0
aI48
aa(lp294
I0
aI11
aI0
aI6
aaaI6
aa(lp295
(lp296
(lp297
I39
aI21
aI12
aI9
aa(lp298
I41
aI48
aI0
aI47
aa(lp299
I0
aI29
aI0
aI57
aa(lp300
I57
aI0
aI45
aI0
aaaI2
aa(lp301
(lp302
(lp303
I36
aI23
aI9
aI19
aa(lp304
I0
aI2
aI0
aI21
aa(lp305
I38
aI0
aI27
aI57
aa(lp306
I57
aI0
aI0
aI0
aaaI2
aa(lp307
(lp308
(lp309
I28
aI25
aI18
aI0
aa(lp310
I57
aI57
aI28
aI0
aa(lp311
I29
aI0
aI14
aI57
aa(lp312
I57
aI0
aI1
aI0
aaaI6
aa(lp313
(lp314
(lp315
I1
aI0
aI22
aI7
aa(lp316
I57
aI57
aI0
aI32
aa(lp317
I33
aI0
aI20
aI57
aa(lp318
I57
aI1
aI8
aI0
aaaI4
aa(lp319
(lp320
(lp321
I20
aI12
aI43
aI6
aa(lp322
I57
aI57
aI28
aI14
aa(lp323
I0
aI31
aI45
aI57
aa(lp324
I57
aI24
aI0
aI49
aaaI5
aa(lp325
(lp326
(lp327
I45
aI7
aI57
aI31
aa(lp328
I57
aI19
aI0
aI0
aa(lp329
I57
aI57
aI57
aI6
aa(lp330
I16
aI0
aI0
aI0
aaaI5
aa(lp331
(lp332
(lp333
I4
aI1
aI0
aI27
aa(lp334
I0
aI0
aI10
aI20
aa(lp335
I0
aI57
aI36
aI44
aa(lp336
I39
aI21
aI0
aI0
aaaI1
aa(lp337
(lp338
(lp339
I12
aI15
aI0
aI46
aa(lp340
I0
aI0
aI0
aI0
aa(lp341
I35
aI0
aI45
aI0
aa(lp342
I0
aI39
aI0
aI39
aaaI6
aa(lp343
(lp344
(lp345
I12
aI0
aI17
aI3
aa(lp346
I0
aI20
aI0
aI43
aa(lp347
I36
aI0
aI39
aI35
aa(lp348
I0
aI0
aI39
aI13
aaaI6
aa(lp349
(lp350
(lp351
I57
aI0
aI0
aI0
aa(lp352
I0
aI57
aI4
aI28
aa(lp353
I32
aI0
aI57
aI0
aa(lp354
I0
aI39
aI17
aI47
aaaI6
aa(lp355
(lp356
(lp357
I0
aI0
aI32
aI0
aa(lp358
I0
aI57
aI0
aI49
aa(lp359
I0
aI0
aI37
aI0
aa(lp360
I10
aI11
aI0
aI42
aaaI6
aa(lp361
(lp362
(lp363
I4
aI0
aI57
aI0
aa(lp364
I49
aI57
aI0
aI0
aa(lp365
I39
aI0
aI11
aI23
aa(lp366
I0
aI5
aI50
aI0
aaaI6
aa(lp367
(lp368
(lp369
I0
aI5
aI57
aI1
aa(lp370
I57
aI57
aI12
aI0
aa(lp371
I57
aI0
aI34
aI57
aa(lp372
I5
aI0
aI0
aI57
aaaI6
aa(lp373
(lp374
(lp375
I0
aI44
aI57
aI0
aa(lp376
I57
aI57
aI2
aI0
aa(lp377
I57
aI0
aI0
aI57
aa(lp378
I28
aI39
aI0
aI57
aaaI6
aa(lp379
(lp380
(lp381
I8
aI57
aI1
aI21
aa(lp382
I0
aI0
aI29
aI0
aa(lp383
I0
aI46
aI57
aI0
aa(lp384
I0
aI0
aI0
aI0
aaaI5
aa(lp385
(lp386
(lp387
I43
aI0
aI14
aI45
aa(lp388
I25
aI28
aI42
aI0
aa(lp389
I0
aI57
aI3
aI0
aa(lp390
I0
aI57
aI11
aI29
aaaI5
aa(lp391
(lp392
(lp393
I32
aI0
aI15
aI16
aa(lp394
I0
aI0
aI38
aI0
aa(lp395
I44
aI24
aI0
aI43
aa(lp396
I45
aI16
aI0
aI0
aaaI2
aa(lp397
(lp398
(lp399
I0
aI11
aI1
aI12
aa(lp400
I30
aI0
aI32
aI0
aa(lp401
I0
aI37
aI0
aI47
aa(lp402
I0
aI3
aI0
aI5
aaaI1
aa(lp403
(lp404
(lp405
I31
aI3
aI29
aI57
aa(lp406
I57
aI0
aI57
aI14
aa(lp407
I30
aI0
aI0
aI42
aa(lp408
I43
aI7
aI12
aI0
aaaI4
aa(lp409
(lp410
(lp411
I0
aI0
aI0
aI12
aa(lp412
I14
aI0
aI20
aI14
aa(lp413
I27
aI0
aI0
aI2
aa(lp414
I6
aI0
aI0
aI0
aaaI6
aa(lp415
(lp416
(lp417
I57
aI43
aI4
aI43
aa(lp418
I34
aI0
aI30
aI57
aa(lp419
I0
aI0
aI0
aI57
aa(lp420
I57
aI57
aI27
aI57
aaaI2
aa(lp421
(lp422
(lp423
I1
aI0
aI3
aI46
aa(lp424
I29
aI0
aI0
aI0
aa(lp425
I27
aI45
aI0
aI57
aa(lp426
I39
aI0
aI0
aI0
aaaI6
aa(lp427
(lp428
(lp429
I40
aI22
aI0
aI0
aa(lp430
I0
aI0
aI0
aI29
aa(lp431
I31
aI0
aI0
aI57
aa(lp432
I7
aI14
aI0
aI0
aaaI6
aa(lp433
(lp434
(lp435
I9
aI30
aI1
aI8
aa(lp436
I31
aI23
aI0
aI0
aa(lp437
I38
aI31
aI49
aI57
aa(lp438
I0
aI57
aI0
aI41
aaaI5
aa(lp439
(lp440
(lp441
I0
aI0
aI57
aI33
aa(lp442
I0
aI0
aI0
aI34
aa(lp443
I0
aI47
aI0
aI57
aa(lp444
I0
aI57
aI0
aI16
aaaI6
aa(lp445
(lp446
(lp447
I4
aI48
aI57
aI1
aa(lp448
I0
aI26
aI0
aI23
aa(lp449
I0
aI37
aI14
aI57
aa(lp450
I45
aI57
aI39
aI3
aaaI4
aa(lp451
(lp452
(lp453
I51
aI0
aI0
aI0
aa(lp454
I25
aI57
aI0
aI21
aa(lp455
I0
aI0
aI0
aI0
aa(lp456
I0
aI17
aI0
aI0
aaaI6
aa(lp457
(lp458
(lp459
I3
aI57
aI1
aI43
aa(lp460
I0
aI26
aI26
aI27
aa(lp461
I27
aI0
aI0
aI0
aa(lp462
I0
aI39
aI50
aI13
aaaI1
aa(lp463
(lp464
(lp465
I19
aI0
aI57
aI0
aa(lp466
I0
aI14
aI29
aI0
aa(lp467
I27
aI0
aI33
aI0
aa(lp468
I0
aI0
aI40
aI47
aaaI6
aa(lp469
(lp470
(lp471
I0
aI3
aI27
aI5
aa(lp472
I0
aI8
aI57
aI57
aa(lp473
I41
aI0
aI0
aI0
aa(lp474
I39
aI0
aI0
aI0
aaaI2
aa(lp475
(lp476
(lp477
I0
aI0
aI57
aI7
aa(lp478
I0
aI17
aI57
aI57
aa(lp479
I2
aI29
aI57
aI57
aa(lp480
I42
aI39
aI49
aI0
aaaI6
aa(lp481
(lp482
(lp483
I0
aI7
aI12
aI15
aa(lp484
I57
aI57
aI23
aI0
aa(lp485
I34
aI43
aI49
aI0
aa(lp486
I25
aI57
aI20
aI0
aaaI6
aa(lp487
(lp488
(lp489
I0
aI0
aI48
aI52
aa(lp490
I57
aI57
aI21
aI11
aa(lp491
I23
aI43
aI24
aI0
aa(lp492
I17
aI57
aI0
aI39
aaaI6
aa(lp493
(lp494
(lp495
I1
aI7
aI19
aI42
aa(lp496
I20
aI14
aI57
aI14
aa(lp497
I30
aI28
aI2
aI57
aa(lp498
I0
aI0
aI0
aI0
aaaI2
aa(lp499
(lp500
(lp501
I0
aI0
aI0
aI0
aa(lp502
I14
aI0
aI0
aI22
aa(lp503
I0
aI33
aI0
aI10
aa(lp504
I0
aI3
aI0
aI57
aaaI6
aa(lp505
(lp506
(lp507
I36
aI0
aI5
aI1
aa(lp508
I33
aI0
aI0
aI0
aa(lp509
I0
aI0
aI0
aI0
aa(lp510
I0
aI0
aI0
aI29
aaaI1
aa(lp511
(lp512
(lp513
I0
aI5
aI2
aI10
aa(lp514
I0
aI0
aI25
aI24
aa(lp515
I33
aI0
aI0
aI0
aa(lp516
I0
aI43
aI39
aI39
aaaI1
aa(lp517
(lp518
(lp519
I12
aI1
aI0
aI39
aa(lp520
I30
aI57
aI3
aI0
aa(lp521
I44
aI17
aI19
aI57
aa(lp522
I0
aI0
aI0
aI26
aaaI3
aa(lp523
(lp524
(lp525
I1
aI10
aI0
aI11
aa(lp526
I28
aI57
aI14
aI0
aa(lp527
I46
aI51
aI0
aI57
aa(lp528
I42
aI0
aI0
aI0
aaaI6
aa(lp529
(lp530
(lp531
I1
aI0
aI42
aI41
aa(lp532
I0
aI0
aI0
aI14
aa(lp533
I0
aI0
aI21
aI0
aa(lp534
I0
aI26
aI57
aI0
aaaI6
aa(lp535
(lp536
(lp537
I57
aI2
aI9
aI1
aa(lp538
I44
aI25
aI0
aI0
aa(lp539
I0
aI0
aI36
aI12
aa(lp540
I7
aI57
aI45
aI6
aaaI1
aa(lp541
(lp542
(lp543
I4
aI41
aI3
aI0
aa(lp544
I0
aI13
aI14
aI0
aa(lp545
I0
aI0
aI0
aI28
aa(lp546
I24
aI0
aI57
aI1
aaaI2
aa(lp547
(lp548
(lp549
I0
aI18
aI17
aI39
aa(lp550
I0
aI0
aI27
aI1
aa(lp551
I0
aI0
aI0
aI25
aa(lp552
I57
aI47
aI57
aI29
aaaI2
aa(lp553
(lp554
(lp555
I0
aI23
aI28
aI45
aa(lp556
I5
aI0
aI45
aI57
aa(lp557
I0
aI0
aI46
aI0
aa(lp558
I57
aI27
aI57
aI42
aaaI5
aa(lp559
(lp560
(lp561
I24
aI3
aI15
aI23
aa(lp562
I0
aI0
aI37
aI20
aa(lp563
I0
aI0
aI0
aI31
aa(lp564
I43
aI0
aI0
aI43
aaaI5
aa(lp565
(lp566
(lp567
I11
aI0
aI0
aI17
aa(lp568
I0
aI57
aI19
aI0
aa(lp569
I0
aI0
aI38
aI57
aa(lp570
I0
aI39
aI43
aI33
aaaI6
aa(lp571
(lp572
(lp573
I20
aI38
aI0
aI1
aa(lp574
I20
aI14
aI0
aI0
aa(lp575
I57
aI9
aI57
aI57
aa(lp576
I15
aI0
aI0
aI12
aaaI4
aa(lp577
(lp578
(lp579
I4
aI37
aI0
aI1
aa(lp580
I57
aI35
aI20
aI0
aa(lp581
I57
aI57
aI57
aI0
aa(lp582
I0
aI50
aI0
aI45
aaaI4
aa(lp583
(lp584
(lp585
I0
aI0
aI0
aI17
aa(lp586
I57
aI0
aI0
aI14
aa(lp587
I32
aI48
aI50
aI0
aa(lp588
I0
aI0
aI0
aI6
aaaI6
aa(lp589
(lp590
(lp591
I0
aI0
aI0
aI20
aa(lp592
I41
aI20
aI0
aI0
aa(lp593
I44
aI0
aI0
aI57
aa(lp594
I0
aI0
aI27
aI0
aaaI6
aa(lp595
(lp596
(lp597
I40
aI0
aI0
aI0
aa(lp598
I14
aI0
aI0
aI11
aa(lp599
I0
aI0
aI0
aI0
aa(lp600
I6
aI0
aI0
aI27
aaaI6
aa(lp601
(lp602
(lp603
I0
aI0
aI0
aI0
aa(lp604
I35
aI25
aI21
aI41
aa(lp605
I0
aI16
aI0
aI0
aa(lp606
I6
aI0
aI0
aI57
aaaI6
aa(lp607
(lp608
(lp609
I11
aI20
aI3
aI57
aa(lp610
I0
aI41
aI0
aI37
aa(lp611
I8
aI29
aI0
aI5
aa(lp612
I0
aI0
aI50
aI0
aaaI2
aa(lp613
(lp614
(lp615
I0
aI0
aI57
aI44
aa(lp616
I27
aI16
aI24
aI42
aa(lp617
I0
aI0
aI36
aI57
aa(lp618
I0
aI0
aI6
aI12
aaaI6
aa(lp619
(lp620
(lp621
I21
aI0
aI20
aI1
aa(lp622
I57
aI0
aI57
aI14
aa(lp623
I36
aI6
aI0
aI36
aa(lp624
I8
aI0
aI41
aI0
aaaI2
aa(lp625
(lp626
(lp627
I1
aI28
aI0
aI13
aa(lp628
I57
aI45
aI57
aI57
aa(lp629
I41
aI43
aI46
aI2
aa(lp630
I0
aI0
aI34
aI0
aaaI6
aa(lp631
(lp632
(lp633
I16
aI29
aI0
aI0
aa(lp634
I0
aI0
aI0
aI0
aa(lp635
I0
aI43
aI0
aI0
aa(lp636
I0
aI39
aI49
aI40
aaaI6
aa(lp637
(lp638
(lp639
I13
aI0
aI32
aI36
aa(lp640
I20
aI57
aI0
aI0
aa(lp641
I50
aI0
aI0
aI57
aa(lp642
I0
aI0
aI0
aI13
aaaI2
aa(lp643
(lp644
(lp645
I10
aI0
aI57
aI18
aa(lp646
I0
aI47
aI0
aI42
aa(lp647
I37
aI57
aI57
aI0
aa(lp648
I57
aI31
aI0
aI0
aaaI6
aa(lp649
(lp650
(lp651
I25
aI1
aI40
aI0
aa(lp652
I0
aI30
aI23
aI57
aa(lp653
I29
aI0
aI0
aI0
aa(lp654
I0
aI0
aI0
aI0
aaaI2
aa(lp655
(lp656
(lp657
I23
aI0
aI31
aI24
aa(lp658
I0
aI29
aI14
aI57
aa(lp659
I30
aI0
aI0
aI0
aa(lp660
I0
aI5
aI0
aI0
aaaI4
aa(lp661
(lp662
(lp663
I0
aI40
aI37
aI57
aa(lp664
I0
aI57
aI0
aI57
aa(lp665
I0
aI51
aI0
aI0
aa(lp666
I19
aI26
aI0
aI10
aaaI6
aa(lp667
(lp668
(lp669
I33
aI39
aI5
aI57
aa(lp670
I20
aI57
aI0
aI57
aa(lp671
I30
aI57
aI0
aI57
aa(lp672
I11
aI0
aI48
aI0
aaaI3
aa(lp673
(lp674
(lp675
I28
aI0
aI15
aI10
aa(lp676
I57
aI0
aI0
aI26
aa(lp677
I50
aI30
aI7
aI0
aa(lp678
I39
aI39
aI57
aI0
aaaI5
aa(lp679
(lp680
(lp681
I38
aI5
aI4
aI0
aa(lp682
I0
aI0
aI27
aI0
aa(lp683
I0
aI50
aI0
aI47
aa(lp684
I57
aI32
aI57
aI39
aaaI1
aa(lp685
(lp686
(lp687
I0
aI5
aI0
aI37
aa(lp688
I57
aI17
aI57
aI3
aa(lp689
I0
aI27
aI26
aI57
aa(lp690
I39
aI31
aI48
aI29
aaaI6
aa(lp691
(lp692
(lp693
I0
aI13
aI1
aI7
aa(lp694
I21
aI21
aI20
aI0
aa(lp695
I15
aI0
aI0
aI0
aa(lp696
I3
aI38
aI17
aI24
aaaI2
aa(lp697
(lp698
(lp699
I25
aI0
aI25
aI12
aa(lp700
I34
aI24
aI57
aI16
aa(lp701
I0
aI57
aI42
aI43
aa(lp702
I3
aI39
aI0
aI0
aaaI3
aa(lp703
(lp704
(lp705
I0
aI0
aI21
aI1
aa(lp706
I0
aI16
aI0
aI0
aa(lp707
I16
aI33
aI38
aI0
aa(lp708
I0
aI9
aI10
aI17
aaaI6
aa(lp709
(lp710
(lp711
I57
aI47
aI7
aI27
aa(lp712
I0
aI6
aI27
aI0
aa(lp713
I41
aI13
aI44
aI0
aa(lp714
I0
aI0
aI37
aI23
aaaI1
aa(lp715
(lp716
(lp717
I31
aI18
aI0
aI18
aa(lp718
I0
aI57
aI0
aI0
aa(lp719
I57
aI57
aI45
aI57
aa(lp720
I0
aI0
aI10
aI43
aaaI6
aa(lp721
(lp722
(lp723
I1
aI42
aI36
aI57
aa(lp724
I0
aI0
aI0
aI33
aa(lp725
I0
aI0
aI27
aI4
aa(lp726
I0
aI0
aI13
aI7
aaaI3
aa(lp727
(lp728
(lp729
I0
aI0
aI35
aI0
aa(lp730
I0
aI7
aI0
aI57
aa(lp731
I57
aI33
aI0
aI42
aa(lp732
I9
aI39
aI0
aI0
aaaI6
aa(lp733
(lp734
(lp735
I0
aI0
aI52
aI0
aa(lp736
I0
aI0
aI0
aI57
aa(lp737
I57
aI57
aI0
aI19
aa(lp738
I48
aI57
aI0
aI0
aaaI6
aa(lp739
(lp740
(lp741
I4
aI18
aI0
aI19
aa(lp742
I15
aI14
aI23
aI0
aa(lp743
I27
aI33
aI49
aI30
aa(lp744
I0
aI46
aI49
aI11
aaaI5
aa(lp745
(lp746
(lp747
I0
aI11
aI29
aI35
aa(lp748
I0
aI0
aI41
aI10
aa(lp749
I30
aI0
aI57
aI0
aa(lp750
I0
aI0
aI39
aI57
aaaI6
aa(lp751
(lp752
(lp753
I0
aI29
aI21
aI40
aa(lp754
I18
aI14
aI0
aI0
aa(lp755
I0
aI45
aI57
aI3
aa(lp756
I0
aI0
aI0
aI57
aaaI3
aa(lp757
(lp758
(lp759
I3
aI5
aI1
aI0
aa(lp760
I31
aI0
aI6
aI36
aa(lp761
I27
aI57
aI41
aI57
aa(lp762
I0
aI41
aI17
aI0
aaaI2
aa(lp763
(lp764
(lp765
I23
aI12
aI29
aI0
aa(lp766
I50
aI0
aI13
aI43
aa(lp767
I13
aI57
aI0
aI57
aa(lp768
I51
aI0
aI0
aI39
aaaI4
aa(lp769
(lp770
(lp771
I17
aI28
aI0
aI0
aa(lp772
I13
aI0
aI0
aI0
aa(lp773
I21
aI57
aI57
aI57
aa(lp774
I57
aI11
aI49
aI0
aaaI6
aa(lp775
(lp776
(lp777
I0
aI20
aI1
aI3
aa(lp778
I34
aI0
aI0
aI0
aa(lp779
I33
aI11
aI0
aI0
aa(lp780
I0
aI0
aI0
aI0
aaaI1
aa(lp781
(lp782
(lp783
I12
aI0
aI30
aI0
aa(lp784
I0
aI0
aI0
aI6
aa(lp785
I57
aI9
aI41
aI27
aa(lp786
I0
aI57
aI42
aI40
aaaI6
aa(lp787
(lp788
(lp789
I0
aI44
aI20
aI20
aa(lp790
I21
aI0
aI24
aI0
aa(lp791
I57
aI51
aI57
aI57
aa(lp792
I3
aI57
aI57
aI0
aaaI6
aa(lp793
(lp794
(lp795
I29
aI0
aI0
aI0
aa(lp796
I0
aI0
aI0
aI0
aa(lp797
I0
aI0
aI47
aI0
aa(lp798
I0
aI39
aI0
aI1
aaaI6
aa(lp799
(lp800
(lp801
I17
aI0
aI0
aI57
aa(lp802
I0
aI26
aI6
aI0
aa(lp803
I0
aI51
aI31
aI0
aa(lp804
I0
aI0
aI39
aI0
aaaI6
aa(lp805
(lp806
(lp807
I15
aI0
aI0
aI0
aa(lp808
I0
aI28
aI0
aI0
aa(lp809
I0
aI0
aI0
aI46
aa(lp810
I0
aI39
aI51
aI0
aaaI6
aa(lp811
(lp812
(lp813
I0
aI38
aI7
aI20
aa(lp814
I0
aI0
aI17
aI0
aa(lp815
I41
aI0
aI13
aI57
aa(lp816
I0
aI0
aI0
aI0
aaaI4
aa(lp817
(lp818
(lp819
I0
aI27
aI26
aI3
aa(lp820
I0
aI0
aI17
aI0
aa(lp821
I29
aI49
aI0
aI57
aa(lp822
I13
aI0
aI14
aI0
aaaI4
aa(lp823
(lp824
(lp825
I16
aI21
aI35
aI0
aa(lp826
I40
aI0
aI57
aI0
aa(lp827
I57
aI43
aI0
aI57
aa(lp828
I0
aI19
aI57
aI51
aaaI6
aa(lp829
(lp830
(lp831
I45
aI4
aI0
aI0
aa(lp832
I0
aI0
aI30
aI0
aa(lp833
I37
aI0
aI5
aI43
aa(lp834
I27
aI39
aI0
aI0
aaaI6
aa(lp835
(lp836
(lp837
I18
aI23
aI46
aI57
aa(lp838
I0
aI0
aI0
aI14
aa(lp839
I28
aI0
aI0
aI27
aa(lp840
I44
aI0
aI57
aI49
aaaI1
aa(lp841
(lp842
(lp843
I0
aI27
aI0
aI2
aa(lp844
I57
aI0
aI0
aI36
aa(lp845
I0
aI10
aI0
aI19
aa(lp846
I57
aI0
aI0
aI43
aaaI6
aa(lp847
(lp848
(lp849
I0
aI2
aI0
aI57
aa(lp850
I8
aI0
aI41
aI0
aa(lp851
I0
aI12
aI0
aI19
aa(lp852
I45
aI41
aI39
aI0
aaaI6
aa(lp853
(lp854
(lp855
I1
aI28
aI1
aI57
aa(lp856
I57
aI0
aI43
aI18
aa(lp857
I3
aI27
aI31
aI0
aa(lp858
I0
aI0
aI0
aI0
aaaI3
aa(lp859
(lp860
(lp861
I21
aI0
aI4
aI0
aa(lp862
I37
aI0
aI25
aI0
aa(lp863
I0
aI0
aI42
aI0
aa(lp864
I0
aI46
aI0
aI42
aaaI6
aa(lp865
(lp866
(lp867
I10
aI0
aI7
aI20
aa(lp868
I34
aI51
aI0
aI57
aa(lp869
I42
aI0
aI57
aI57
aa(lp870
I0
aI0
aI0
aI12
aaaI4
aa(lp871
(lp872
(lp873
I21
aI0
aI26
aI29
aa(lp874
I37
aI21
aI14
aI57
aa(lp875
I0
aI0
aI57
aI57
aa(lp876
I39
aI0
aI6
aI0
aaaI6
aa(lp877
(lp878
(lp879
I0
aI57
aI10
aI0
aa(lp880
I57
aI57
aI0
aI14
aa(lp881
I0
aI0
aI0
aI19
aa(lp882
I0
aI31
aI0
aI0
aaaI6
aa(lp883
(lp884
(lp885
I0
aI32
aI7
aI56
aa(lp886
I0
aI0
aI21
aI0
aa(lp887
I27
aI0
aI57
aI18
aa(lp888
I0
aI47
aI57
aI42
aaaI6
aa(lp889
(lp890
(lp891
I0
aI0
aI1
aI1
aa(lp892
I0
aI21
aI4
aI0
aa(lp893
I0
aI30
aI0
aI0
aa(lp894
I0
aI38
aI22
aI0
aaaI6
aa(lp895
(lp896
(lp897
I0
aI50
aI7
aI21
aa(lp898
I0
aI0
aI24
aI0
aa(lp899
I0
aI0
aI0
aI42
aa(lp900
I35
aI3
aI0
aI50
aaaI2
aa(lp901
(lp902
(lp903
I33
aI26
aI0
aI1
aa(lp904
I20
aI0
aI14
aI18
aa(lp905
I0
aI16
aI0
aI44
aa(lp906
I0
aI0
aI0
aI6
aaaI3
aa(lp907
(lp908
(lp909
I1
aI40
aI12
aI0
aa(lp910
I0
aI35
aI0
aI14
aa(lp911
I0
aI28
aI4
aI32
aa(lp912
I31
aI0
aI57
aI0
aaaI4
aa(lp913
(lp914
(lp915
I0
aI28
aI0
aI0
aa(lp916
I57
aI57
aI0
aI0
aa(lp917
I57
aI0
aI0
aI38
aa(lp918
I3
aI40
aI57
aI0
aaaI6
aa(lp919
(lp920
(lp921
I0
aI18
aI0
aI0
aa(lp922
I43
aI57
aI0
aI28
aa(lp923
I0
aI35
aI0
aI0
aa(lp924
I4
aI0
aI31
aI0
aaaI6
aa(lp925
(lp926
(lp927
I7
aI1
aI49
aI12
aa(lp928
I0
aI23
aI57
aI0
aa(lp929
I57
aI57
aI57
aI16
aa(lp930
I33
aI57
aI28
aI57
aaaI1
aa(lp931
(lp932
(lp933
I37
aI0
aI5
aI1
aa(lp934
I0
aI0
aI48
aI34
aa(lp935
I18
aI57
aI7
aI57
aa(lp936
I0
aI0
aI0
aI32
aaaI6
aa(lp937
(lp938
(lp939
I43
aI5
aI0
aI1
aa(lp940
I0
aI0
aI1
aI47
aa(lp941
I25
aI57
aI16
aI57
aa(lp942
I0
aI0
aI0
aI37
aaaI1
aa(lp943
(lp944
(lp945
I0
aI18
aI25
aI3
aa(lp946
I0
aI39
aI1
aI0
aa(lp947
I57
aI57
aI29
aI57
aa(lp948
I41
aI43
aI0
aI40
aaaI4
aa(lp949
(lp950
(lp951
I38
aI0
aI3
aI0
aa(lp952
I57
aI0
aI14
aI57
aa(lp953
I11
aI27
aI27
aI26
aa(lp954
I22
aI0
aI0
aI0
aaaI6
aa(lp955
(lp956
(lp957
I11
aI9
aI0
aI48
aa(lp958
I57
aI57
aI9
aI57
aa(lp959
I57
aI0
aI27
aI24
aa(lp960
I0
aI13
aI0
aI0
aaaI1
aa(lp961
(lp962
(lp963
I28
aI1
aI32
aI57
aa(lp964
I0
aI0
aI0
aI44
aa(lp965
I12
aI0
aI0
aI0
aa(lp966
I2
aI0
aI0
aI0
aaaI1
aa(lp967
(lp968
(lp969
I3
aI38
aI57
aI1
aa(lp970
I22
aI0
aI0
aI10
aa(lp971
I0
aI0
aI57
aI25
aa(lp972
I43
aI45
aI0
aI3
aaaI3
aa(lp973
(lp974
(lp975
I16
aI13
aI0
aI16
aa(lp976
I0
aI31
aI14
aI0
aa(lp977
I0
aI0
aI0
aI8
aa(lp978
I0
aI50
aI39
aI0
aaaI3
aa(lp979
(lp980
(lp981
I0
aI57
aI23
aI0
aa(lp982
I0
aI30
aI0
aI50
aa(lp983
I12
aI12
aI3
aI0
aa(lp984
I6
aI0
aI57
aI9
aaaI6
aa(lp985
(lp986
(lp987
I0
aI57
aI27
aI0
aa(lp988
I18
aI0
aI0
aI0
aa(lp989
I0
aI0
aI43
aI0
aa(lp990
I8
aI0
aI57
aI40
aaaI6
aa(lp991
(lp992
(lp993
I0
aI57
aI0
aI19
aa(lp994
I0
aI0
aI57
aI57
aa(lp995
I57
aI29
aI0
aI57
aa(lp996
I0
aI50
aI57
aI42
aaaI6
aa(lp997
(lp998
(lp999
I1
aI12
aI20
aI51
aa(lp1000
I0
aI0
aI0
aI0
aa(lp1001
I42
aI15
aI0
aI39
aa(lp1002
I10
aI23
aI0
aI39
aaaI2
aa(lp1003
(lp1004
(lp1005
I12
aI0
aI0
aI0
aa(lp1006
I0
aI0
aI0
aI26
aa(lp1007
I0
aI42
aI30
aI44
aa(lp1008
I57
aI0
aI0
aI34
aaaI6
aa(lp1009
(lp1010
(lp1011
I12
aI7
aI13
aI37
aa(lp1012
I44
aI0
aI0
aI20
aa(lp1013
I0
aI0
aI34
aI33
aa(lp1014
I0
aI57
aI26
aI39
aaaI1
aa(lp1015
(lp1016
(lp1017
I0
aI45
aI2
aI1
aa(lp1018
I22
aI11
aI0
aI0
aa(lp1019
I57
aI49
aI0
aI57
aa(lp1020
I45
aI0
aI0
aI0
aaaI2
aa(lp1021
(lp1022
(lp1023
I0
aI30
aI0
aI24
aa(lp1024
I0
aI49
aI20
aI14
aa(lp1025
I0
aI46
aI0
aI23
aa(lp1026
I11
aI4
aI0
aI0
aaaI6
aa(lp1027
(lp1028
(lp1029
I49
aI0
aI31
aI13
aa(lp1030
I14
aI0
aI16
aI20
aa(lp1031
I0
aI8
aI0
aI0
aa(lp1032
I0
aI0
aI0
aI0
aaaI2
aa(lp1033
(lp1034
(lp1035
I0
aI1
aI0
aI0
aa(lp1036
I57
aI6
aI31
aI57
aa(lp1037
I57
aI0
aI27
aI31
aa(lp1038
I32
aI14
aI57
aI0
aaaI6
aa(lp1039
(lp1040
(lp1041
I0
aI1
aI7
aI16
aa(lp1042
I57
aI45
aI0
aI57
aa(lp1043
I57
aI0
aI57
aI18
aa(lp1044
I42
aI41
aI57
aI45
aaaI3
aa(lp1045
(lp1046
(lp1047
I13
aI57
aI1
aI20
aa(lp1048
I57
aI14
aI20
aI57
aa(lp1049
I57
aI3
aI57
aI57
aa(lp1050
I0
aI0
aI57
aI0
aaaI6
aa(lp1051
(lp1052
(lp1053
I4
aI8
aI0
aI1
aa(lp1054
I17
aI0
aI35
aI0
aa(lp1055
I57
aI27
aI50
aI57
aa(lp1056
I39
aI0
aI0
aI0
aaaI1
aa(lp1057
(lp1058
(lp1059
I8
aI39
aI0
aI20
aa(lp1060
I0
aI0
aI21
aI0
aa(lp1061
I0
aI57
aI40
aI0
aa(lp1062
I57
aI25
aI25
aI50
aaaI3
aa(lp1063
(lp1064
(lp1065
I14
aI31
aI39
aI57
aa(lp1066
I0
aI0
aI0
aI6
aa(lp1067
I0
aI0
aI20
aI30
aa(lp1068
I0
aI0
aI39
aI39
aaaI6
aa(lp1069
(lp1070
(lp1071
I0
aI37
aI0
aI0
aa(lp1072
I20
aI0
aI0
aI0
aa(lp1073
I44
aI57
aI36
aI16
aa(lp1074
I0
aI0
aI0
aI9
aaaI6
aa(lp1075
(lp1076
(lp1077
I19
aI19
aI0
aI1
aa(lp1078
I0
aI35
aI38
aI0
aa(lp1079
I57
aI57
aI48
aI0
aa(lp1080
I0
aI0
aI49
aI0
aaaI2
aa(lp1081
(lp1082
(lp1083
I57
aI0
aI0
aI0
aa(lp1084
I14
aI0
aI4
aI45
aa(lp1085
I0
aI27
aI0
aI38
aa(lp1086
I18
aI57
aI57
aI49
aaaI6
aa(lp1087
(lp1088
(lp1089
I0
aI57
aI0
aI12
aa(lp1090
I0
aI30
aI3
aI57
aa(lp1091
I0
aI35
aI20
aI48
aa(lp1092
I45
aI24
aI57
aI57
aaaI6
aa(lp1093
(lp1094
(lp1095
I0
aI0
aI0
aI1
aa(lp1096
I57
aI27
aI0
aI0
aa(lp1097
I57
aI0
aI40
aI8
aa(lp1098
I0
aI57
aI0
aI12
aaaI6
aa(lp1099
(lp1100
(lp1101
I18
aI4
aI0
aI22
aa(lp1102
I17
aI7
aI14
aI0
aa(lp1103
I11
aI35
aI0
aI0
aa(lp1104
I0
aI39
aI12
aI40
aaaI5
aa(lp1105
(lp1106
(lp1107
I3
aI57
aI0
aI0
aa(lp1108
I57
aI1
aI17
aI57
aa(lp1109
I29
aI0
aI57
aI41
aa(lp1110
I15
aI47
aI4
aI0
aaaI6
aa(lp1111
(lp1112
(lp1113
I18
aI57
aI36
aI44
aa(lp1114
I57
aI27
aI0
aI0
aa(lp1115
I0
aI0
aI40
aI0
aa(lp1116
I0
aI0
aI5
aI0
aaaI2
aa(lp1117
(lp1118
(lp1119
I2
aI27
aI0
aI0
aa(lp1120
I0
aI0
aI20
aI0
aa(lp1121
I0
aI0
aI37
aI0
aa(lp1122
I45
aI7
aI43
aI0
aaaI6
aa(lp1123
(lp1124
(lp1125
I2
aI27
aI0
aI1
aa(lp1126
I0
aI0
aI21
aI0
aa(lp1127
I0
aI0
aI40
aI0
aa(lp1128
I49
aI7
aI43
aI0
aaaI1
aa(lp1129
(lp1130
(lp1131
I29
aI17
aI0
aI1
aa(lp1132
I57
aI51
aI45
aI0
aa(lp1133
I0
aI57
aI27
aI30
aa(lp1134
I0
aI39
aI42
aI12
aaaI5
aa(lp1135
(lp1136
(lp1137
I0
aI4
aI1
aI50
aa(lp1138
I22
aI0
aI57
aI23
aa(lp1139
I36
aI57
aI46
aI0
aa(lp1140
I57
aI57
aI37
aI57
aaaI1
aa(lp1141
(lp1142
(lp1143
I0
aI0
aI45
aI38
aa(lp1144
I4
aI0
aI57
aI0
aa(lp1145
I0
aI57
aI0
aI19
aa(lp1146
I57
aI57
aI35
aI57
aaaI6
aa(lp1147
(lp1148
(lp1149
I4
aI0
aI0
aI0
aa(lp1150
I57
aI27
aI57
aI0
aa(lp1151
I0
aI57
aI37
aI57
aa(lp1152
I57
aI57
aI2
aI57
aaaI6
aa(lp1153
(lp1154
(lp1155
I22
aI1
aI21
aI2
aa(lp1156
I8
aI33
aI0
aI0
aa(lp1157
I0
aI57
aI57
aI0
aa(lp1158
I48
aI0
aI46
aI0
aaaI4
aa(lp1159
(lp1160
(lp1161
I14
aI1
aI5
aI0
aa(lp1162
I57
aI14
aI57
aI0
aa(lp1163
I34
aI18
aI0
aI0
aa(lp1164
I3
aI0
aI0
aI0
aaaI3
aa(lp1165
(lp1166
(lp1167
I0
aI1
aI31
aI42
aa(lp1168
I57
aI5
aI57
aI57
aa(lp1169
I0
aI0
aI51
aI0
aa(lp1170
I0
aI24
aI0
aI0
aaaI3
aa(lp1171
(lp1172
(lp1173
I45
aI4
aI1
aI24
aa(lp1174
I37
aI28
aI14
aI0
aa(lp1175
I0
aI46
aI0
aI0
aa(lp1176
I28
aI0
aI39
aI0
aaaI4
aa(lp1177
(lp1178
(lp1179
I0
aI0
aI0
aI0
aa(lp1180
I0
aI0
aI14
aI0
aa(lp1181
I0
aI57
aI0
aI3
aa(lp1182
I0
aI0
aI43
aI0
aaaI6
aa(lp1183
(lp1184
(lp1185
I0
aI1
aI32
aI36
aa(lp1186
I0
aI7
aI0
aI0
aa(lp1187
I16
aI0
aI0
aI50
aa(lp1188
I5
aI0
aI0
aI0
aaaI6
aa(lp1189
(lp1190
(lp1191
I28
aI26
aI4
aI12
aa(lp1192
I1
aI0
aI0
aI0
aa(lp1193
I0
aI25
aI23
aI57
aa(lp1194
I13
aI39
aI29
aI7
aaaI5
aa(lp1195
(lp1196
(lp1197
I3
aI0
aI0
aI29
aa(lp1198
I36
aI57
aI57
aI57
aa(lp1199
I0
aI57
aI27
aI0
aa(lp1200
I7
aI11
aI50
aI0
aaaI6
aa(lp1201
(lp1202
(lp1203
I20
aI0
aI26
aI20
aa(lp1204
I8
aI0
aI57
aI14
aa(lp1205
I27
aI2
aI0
aI0
aa(lp1206
I0
aI0
aI3
aI0
aaaI4
aa(lp1207
(lp1208
(lp1209
I34
aI42
aI57
aI0
aa(lp1210
I0
aI13
aI47
aI30
aa(lp1211
I11
aI0
aI0
aI6
aa(lp1212
I0
aI57
aI25
aI57
aaaI6
aa(lp1213
(lp1214
(lp1215
I14
aI0
aI0
aI0
aa(lp1216
I0
aI0
aI0
aI41
aa(lp1217
I0
aI0
aI12
aI0
aa(lp1218
I39
aI0
aI47
aI19
aaaI6
aa(lp1219
(lp1220
(lp1221
I33
aI0
aI0
aI0
aa(lp1222
I43
aI0
aI20
aI0
aa(lp1223
I36
aI0
aI0
aI0
aa(lp1224
I2
aI0
aI22
aI48
aaaI6
aa(lp1225
(lp1226
(lp1227
I0
aI0
aI18
aI0
aa(lp1228
I26
aI0
aI0
aI0
aa(lp1229
I27
aI29
aI13
aI40
aa(lp1230
I43
aI0
aI6
aI0
aaaI6
aa(lp1231
(lp1232
(lp1233
I2
aI31
aI23
aI0
aa(lp1234
I0
aI0
aI0
aI0
aa(lp1235
I40
aI37
aI0
aI44
aa(lp1236
I8
aI50
aI0
aI5
aaaI1
aa(lp1237
(lp1238
(lp1239
I6
aI0
aI20
aI7
aa(lp1240
I0
aI49
aI57
aI44
aa(lp1241
I0
aI0
aI0
aI30
aa(lp1242
I0
aI37
aI0
aI0
aaaI3
aa(lp1243
(lp1244
(lp1245
I0
aI44
aI0
aI0
aa(lp1246
I0
aI57
aI14
aI0
aa(lp1247
I57
aI31
aI27
aI34
aa(lp1248
I57
aI51
aI0
aI0
aaaI6
aa(lp1249
(lp1250
(lp1251
I9
aI34
aI1
aI9
aa(lp1252
I14
aI57
aI23
aI12
aa(lp1253
I57
aI40
aI13
aI14
aa(lp1254
I57
aI46
aI0
aI0
aaaI2
aa(lp1255
(lp1256
(lp1257
I0
aI18
aI19
aI45
aa(lp1258
I17
aI16
aI13
aI42
aa(lp1259
I0
aI0
aI0
aI4
aa(lp1260
I26
aI57
aI11
aI0
aaaI5
aa(lp1261
(lp1262
(lp1263
I0
aI17
aI2
aI0
aa(lp1264
I0
aI8
aI0
aI0
aa(lp1265
I0
aI0
aI0
aI38
aa(lp1266
I0
aI40
aI57
aI57
aaaI6
aa(lp1267
(lp1268
(lp1269
I0
aI0
aI57
aI0
aa(lp1270
I49
aI57
aI0
aI0
aa(lp1271
I57
aI57
aI0
aI40
aa(lp1272
I17
aI17
aI57
aI57
aaaI6
aa(lp1273
(lp1274
(lp1275
I28
aI11
aI36
aI0
aa(lp1276
I0
aI57
aI57
aI47
aa(lp1277
I40
aI42
aI17
aI0
aa(lp1278
I4
aI57
aI0
aI57
aaaI3
aa(lp1279
(lp1280
(lp1281
I12
aI7
aI0
aI31
aa(lp1282
I15
aI0
aI0
aI0
aa(lp1283
I0
aI45
aI0
aI48
aa(lp1284
I11
aI33
aI57
aI22
aaaI6
aa(lp1285
(lp1286
(lp1287
I47
aI33
aI0
aI1
aa(lp1288
I57
aI47
aI57
aI0
aa(lp1289
I0
aI0
aI0
aI0
aa(lp1290
I9
aI0
aI57
aI57
aaaI2
aa(lp1291
(lp1292
(lp1293
I0
aI0
aI0
aI15
aa(lp1294
I57
aI31
aI57
aI57
aa(lp1295
I43
aI57
aI27
aI57
aa(lp1296
I57
aI39
aI57
aI57
aaaI6
aa(lp1297
(lp1298
(lp1299
I37
aI9
aI36
aI0
aa(lp1300
I0
aI0
aI0
aI0
aa(lp1301
I49
aI27
aI57
aI27
aa(lp1302
I0
aI9
aI0
aI0
aaaI5
aa(lp1303
(lp1304
(lp1305
I0
aI4
aI35
aI57
aa(lp1306
I0
aI0
aI0
aI14
aa(lp1307
I39
aI0
aI10
aI0
aa(lp1308
I0
aI0
aI0
aI57
aaaI6
aa(lp1309
(lp1310
(lp1311
I25
aI12
aI15
aI57
aa(lp1312
I0
aI22
aI0
aI31
aa(lp1313
I45
aI27
aI46
aI0
aa(lp1314
I10
aI46
aI57
aI57
aaaI3
aa(lp1315
(lp1316
(lp1317
I4
aI0
aI45
aI57
aa(lp1318
I0
aI0
aI41
aI36
aa(lp1319
I0
aI27
aI0
aI27
aa(lp1320
I0
aI18
aI57
aI57
aaaI6
aa(lp1321
(lp1322
(lp1323
I1
aI0
aI0
aI57
aa(lp1324
I0
aI20
aI0
aI36
aa(lp1325
I6
aI47
aI0
aI6
aa(lp1326
I31
aI0
aI57
aI57
aaaI6
aa(lp1327
(lp1328
(lp1329
I0
aI0
aI12
aI57
aa(lp1330
I44
aI57
aI0
aI57
aa(lp1331
I1
aI0
aI57
aI48
aa(lp1332
I57
aI41
aI57
aI57
aaaI6
aa(lp1333
(lp1334
(lp1335
I13
aI20
aI3
aI52
aa(lp1336
I0
aI0
aI0
aI57
aa(lp1337
I57
aI11
aI57
aI0
aa(lp1338
I0
aI39
aI36
aI0
aaaI5
aa(lp1339
(lp1340
(lp1341
I33
aI0
aI11
aI2
aa(lp1342
I57
aI0
aI41
aI18
aa(lp1343
I36
aI51
aI0
aI12
aa(lp1344
I0
aI0
aI0
aI0
aaaI1
aa(lp1345
(lp1346
(lp1347
I28
aI29
aI0
aI10
aa(lp1348
I57
aI0
aI57
aI26
aa(lp1349
I57
aI57
aI16
aI27
aa(lp1350
I3
aI41
aI39
aI1
aaaI2
aa(lp1351
(lp1352
(lp1353
I45
aI0
aI32
aI57
aa(lp1354
I5
aI14
aI18
aI0
aa(lp1355
I0
aI57
aI57
aI12
aa(lp1356
I5
aI0
aI20
aI0
aaaI6
aa(lp1357
(lp1358
(lp1359
I7
aI26
aI1
aI12
aa(lp1360
I16
aI20
aI57
aI22
aa(lp1361
I0
aI0
aI36
aI0
aa(lp1362
I48
aI0
aI47
aI57
aaaI2
aa(lp1363
(lp1364
(lp1365
I1
aI39
aI8
aI31
aa(lp1366
I40
aI31
aI57
aI40
aa(lp1367
I0
aI36
aI0
aI0
aa(lp1368
I0
aI5
aI20
aI57
aaaI4
aa(lp1369
(lp1370
(lp1371
I0
aI57
aI25
aI11
aa(lp1372
I39
aI0
aI57
aI0
aa(lp1373
I0
aI0
aI47
aI57
aa(lp1374
I1
aI0
aI0
aI57
aaaI6
aa(lp1375
(lp1376
(lp1377
I57
aI0
aI0
aI18
aa(lp1378
I39
aI57
aI0
aI57
aa(lp1379
I57
aI0
aI27
aI0
aa(lp1380
I4
aI0
aI57
aI0
aaaI6
aa(lp1381
(lp1382
(lp1383
I0
aI57
aI37
aI44
aa(lp1384
I0
aI0
aI0
aI21
aa(lp1385
I0
aI42
aI6
aI57
aa(lp1386
I0
aI14
aI0
aI0
aaaI6
aa(lp1387
(lp1388
(lp1389
I0
aI0
aI19
aI1
aa(lp1390
I0
aI9
aI18
aI36
aa(lp1391
I42
aI57
aI0
aI0
aa(lp1392
I39
aI0
aI0
aI0
aaaI6
aa(lp1393
(lp1394
(lp1395
I57
aI7
aI10
aI24
aa(lp1396
I0
aI0
aI17
aI32
aa(lp1397
I0
aI57
aI0
aI0
aa(lp1398
I0
aI57
aI57
aI5
aaaI4
aa(lp1399
(lp1400
(lp1401
I1
aI15
aI1
aI4
aa(lp1402
I0
aI0
aI38
aI36
aa(lp1403
I48
aI3
aI0
aI0
aa(lp1404
I0
aI0
aI27
aI28
aaaI4
aa(lp1405
(lp1406
(lp1407
I19
aI0
aI6
aI4
aa(lp1408
I0
aI57
aI6
aI57
aa(lp1409
I28
aI57
aI0
aI28
aa(lp1410
I38
aI15
aI39
aI57
aaaI4
aa(lp1411
(lp1412
(lp1413
I0
aI0
aI12
aI0
aa(lp1414
I30
aI57
aI0
aI57
aa(lp1415
I37
aI57
aI49
aI0
aa(lp1416
I10
aI0
aI0
aI57
aaaI6
aa(lp1417
(lp1418
(lp1419
I0
aI4
aI0
aI0
aa(lp1420
I11
aI57
aI30
aI57
aa(lp1421
I0
aI57
aI22
aI50
aa(lp1422
I39
aI0
aI0
aI57
aaaI6
aa(lp1423
(lp1424
(lp1425
I0
aI0
aI0
aI10
aa(lp1426
I57
aI57
aI27
aI57
aa(lp1427
I7
aI57
aI57
aI0
aa(lp1428
I24
aI0
aI33
aI57
aaaI6
aa(lp1429
(lp1430
(lp1431
I16
aI1
aI2
aI7
aa(lp1432
I57
aI57
aI37
aI57
aa(lp1433
I0
aI27
aI0
aI15
aa(lp1434
I38
aI0
aI0
aI0
aaaI3
aa(lp1435
(lp1436
(lp1437
I9
aI12
aI16
aI57
aa(lp1438
I0
aI20
aI57
aI20
aa(lp1439
I0
aI57
aI25
aI30
aa(lp1440
I0
aI36
aI57
aI50
aaaI2
aa(lp1441
(lp1442
(lp1443
I2
aI30
aI46
aI0
aa(lp1444
I0
aI0
aI0
aI11
aa(lp1445
I0
aI36
aI27
aI42
aa(lp1446
I20
aI0
aI0
aI0
aaaI2
aa(lp1447
(lp1448
(lp1449
I0
aI0
aI46
aI0
aa(lp1450
I43
aI57
aI0
aI0
aa(lp1451
I0
aI11
aI0
aI37
aa(lp1452
I5
aI0
aI0
aI20
aaaI6
aa(lp1453
(lp1454
(lp1455
I4
aI0
aI11
aI11
aa(lp1456
I25
aI0
aI18
aI22
aa(lp1457
I0
aI27
aI0
aI0
aa(lp1458
I0
aI39
aI0
aI39
aaaI5
aa(lp1459
(lp1460
(lp1461
I0
aI0
aI0
aI9
aa(lp1462
I0
aI14
aI0
aI36
aa(lp1463
I44
aI0
aI0
aI43
aa(lp1464
I57
aI57
aI29
aI46
aaaI6
aa(lp1465
(lp1466
(lp1467
I0
aI0
aI57
aI2
aa(lp1468
I0
aI13
aI25
aI29
aa(lp1469
I0
aI0
aI0
aI0
aa(lp1470
I57
aI57
aI57
aI33
aaaI6
aa(lp1471
(lp1472
(lp1473
I12
aI7
aI27
aI40
aa(lp1474
I33
aI57
aI0
aI0
aa(lp1475
I30
aI57
aI0
aI0
aa(lp1476
I5
aI0
aI57
aI46
aaaI4
aa(lp1477
(lp1478
(lp1479
I0
aI0
aI0
aI21
aa(lp1480
I57
aI44
aI0
aI0
aa(lp1481
I57
aI57
aI28
aI3
aa(lp1482
I0
aI41
aI6
aI41
aaaI6
aa(lp1483
(lp1484
(lp1485
I0
aI38
aI0
aI0
aa(lp1486
I57
aI15
aI0
aI0
aa(lp1487
I57
aI57
aI57
aI12
aa(lp1488
I39
aI0
aI26
aI0
aaaI6
aa(lp1489
(lp1490
(lp1491
I0
aI4
aI5
aI27
aa(lp1492
I35
aI36
aI0
aI28
aa(lp1493
I12
aI0
aI45
aI39
aa(lp1494
I2
aI0
aI0
aI0
aaaI5
aa(lp1495
(lp1496
(lp1497
I12
aI20
aI0
aI57
aa(lp1498
I0
aI33
aI0
aI0
aa(lp1499
I0
aI0
aI47
aI44
aa(lp1500
I0
aI0
aI4
aI4
aaaI6
aa(lp1501
(lp1502
(lp1503
I24
aI0
aI0
aI57
aa(lp1504
I57
aI11
aI35
aI27
aa(lp1505
I0
aI57
aI0
aI33
aa(lp1506
I0
aI39
aI40
aI0
aaaI6
aa(lp1507
(lp1508
(lp1509
I0
aI0
aI39
aI0
aa(lp1510
I0
aI0
aI17
aI0
aa(lp1511
I0
aI34
aI49
aI57
aa(lp1512
I23
aI40
aI0
aI0
aaaI6
aa(lp1513
(lp1514
(lp1515
I42
aI1
aI15
aI0
aa(lp1516
I0
aI0
aI57
aI49
aa(lp1517
I50
aI0
aI0
aI36
aa(lp1518
I0
aI50
aI0
aI27
aaaI4
aa(lp1519
(lp1520
(lp1521
I25
aI1
aI0
aI0
aa(lp1522
I0
aI30
aI0
aI0
aa(lp1523
I0
aI0
aI35
aI50
aa(lp1524
I40
aI15
aI6
aI0
aaaI6
aa(lp1525
(lp1526
(lp1527
I35
aI19
aI8
aI0
aa(lp1528
I0
aI41
aI20
aI0
aa(lp1529
I0
aI0
aI48
aI0
aa(lp1530
I0
aI43
aI49
aI0
aaaI5
aa(lp1531
(lp1532
(lp1533
I13
aI25
aI10
aI46
aa(lp1534
I2
aI57
aI14
aI37
aa(lp1535
I6
aI50
aI38
aI51
aa(lp1536
I39
aI12
aI0
aI39
aaaI2
aa(lp1537
(lp1538
(lp1539
I57
aI9
aI35
aI43
aa(lp1540
I57
aI57
aI30
aI0
aa(lp1541
I27
aI0
aI0
aI57
aa(lp1542
I0
aI0
aI43
aI13
aaaI5
aa(lp1543
(lp1544
(lp1545
I4
aI0
aI5
aI4
aa(lp1546
I20
aI57
aI0
aI0
aa(lp1547
I35
aI24
aI0
aI27
aa(lp1548
I0
aI46
aI0
aI8
aaaI6
aa(lp1549
(lp1550
(lp1551
I13
aI1
aI5
aI11
aa(lp1552
I40
aI57
aI0
aI14
aa(lp1553
I45
aI0
aI0
aI35
aa(lp1554
I0
aI5
aI0
aI21
aaaI3
aa(lp1555
(lp1556
(lp1557
I0
aI0
aI21
aI0
aa(lp1558
I0
aI57
aI40
aI0
aa(lp1559
I42
aI0
aI27
aI0
aa(lp1560
I0
aI32
aI7
aI0
aaaI6
aa(lp1561
(lp1562
(lp1563
I7
aI0
aI0
aI0
aa(lp1564
I30
aI57
aI41
aI57
aa(lp1565
I0
aI0
aI0
aI0
aa(lp1566
I0
aI0
aI0
aI35
aaaI6
aa(lp1567
(lp1568
(lp1569
I38
aI24
aI14
aI0
aa(lp1570
I0
aI57
aI9
aI57
aa(lp1571
I0
aI0
aI57
aI30
aa(lp1572
I0
aI0
aI0
aI25
aaaI5
aa(lp1573
(lp1574
(lp1575
I18
aI0
aI0
aI4
aa(lp1576
I48
aI0
aI0
aI0
aa(lp1577
I19
aI0
aI0
aI0
aa(lp1578
I37
aI31
aI39
aI0
aaaI6
aa(lp1579
(lp1580
(lp1581
I26
aI0
aI22
aI25
aa(lp1582
I0
aI0
aI51
aI8
aa(lp1583
I41
aI30
aI0
aI0
aa(lp1584
I0
aI46
aI3
aI48
aaaI2
aa(lp1585
(lp1586
(lp1587
I57
aI36
aI12
aI0
aa(lp1588
I10
aI17
aI25
aI0
aa(lp1589
I7
aI0
aI5
aI0
aa(lp1590
I0
aI0
aI57
aI0
aaaI6
aa(lp1591
(lp1592
(lp1593
I57
aI0
aI22
aI46
aa(lp1594
I0
aI50
aI14
aI0
aa(lp1595
I27
aI0
aI0
aI0
aa(lp1596
I15
aI0
aI57
aI0
aaaI6
aa(lp1597
(lp1598
(lp1599
I15
aI11
aI5
aI0
aa(lp1600
I0
aI0
aI42
aI0
aa(lp1601
I0
aI30
aI0
aI0
aa(lp1602
I42
aI0
aI0
aI9
aaaI1
aa(lp1603
(lp1604
(lp1605
I0
aI0
aI5
aI25
aa(lp1606
I47
aI0
aI0
aI0
aa(lp1607
I27
aI57
aI21
aI27
aa(lp1608
I32
aI0
aI23
aI0
aaaI6
aa(lp1609
(lp1610
(lp1611
I0
aI10
aI1
aI16
aa(lp1612
I50
aI0
aI47
aI0
aa(lp1613
I0
aI57
aI57
aI0
aa(lp1614
I40
aI0
aI0
aI0
aaaI2
aa(lp1615
(lp1616
(lp1617
I4
aI37
aI20
aI0
aa(lp1618
I0
aI40
aI57
aI0
aa(lp1619
I2
aI5
aI0
aI0
aa(lp1620
I0
aI0
aI40
aI49
aaaI5
aa(lp1621
(lp1622
(lp1623
I10
aI0
aI1
aI0
aa(lp1624
I2
aI57
aI57
aI57
aa(lp1625
I0
aI0
aI0
aI30
aa(lp1626
I57
aI57
aI25
aI57
aaaI6
aa(lp1627
(lp1628
(lp1629
I12
aI9
aI44
aI0
aa(lp1630
I0
aI57
aI57
aI57
aa(lp1631
I34
aI31
aI0
aI0
aa(lp1632
I57
aI57
aI46
aI57
aaaI5
aa(lp1633
(lp1634
(lp1635
I39
aI0
aI19
aI1
aa(lp1636
I31
aI57
aI57
aI57
aa(lp1637
I3
aI0
aI0
aI0
aa(lp1638
I57
aI57
aI43
aI57
aaaI4
aa(lp1639
(lp1640
(lp1641
I16
aI0
aI21
aI0
aa(lp1642
I25
aI57
aI43
aI14
aa(lp1643
I27
aI1
aI41
aI0
aa(lp1644
I0
aI0
aI37
aI57
aaaI6
aa(lp1645
(lp1646
(lp1647
I0
aI10
aI32
aI57
aa(lp1648
I0
aI57
aI23
aI0
aa(lp1649
I48
aI0
aI27
aI27
aa(lp1650
I57
aI47
aI0
aI57
aaaI6
aa(lp1651
(lp1652
(lp1653
I16
aI20
aI0
aI57
aa(lp1654
I14
aI57
aI0
aI0
aa(lp1655
I0
aI0
aI10
aI45
aa(lp1656
I57
aI21
aI49
aI57
aaaI6
aa(lp1657
(lp1658
(lp1659
I0
aI44
aI7
aI23
aa(lp1660
I57
aI25
aI57
aI57
aa(lp1661
I0
aI0
aI39
aI27
aa(lp1662
I0
aI0
aI3
aI0
aaaI3
aa(lp1663
(lp1664
(lp1665
I0
aI0
aI0
aI0
aa(lp1666
I0
aI24
aI0
aI0
aa(lp1667
I32
aI0
aI43
aI38
aa(lp1668
I49
aI22
aI0
aI0
aaaI6
aa(lp1669
(lp1670
(lp1671
I0
aI0
aI0
aI0
aa(lp1672
I0
aI0
aI34
aI0
aa(lp1673
I20
aI0
aI0
aI0
aa(lp1674
I4
aI0
aI0
aI2
aaaI6
aa(lp1675
(lp1676
(lp1677
I0
aI1
aI34
aI0
aa(lp1678
I0
aI14
aI0
aI0
aa(lp1679
I29
aI0
aI0
aI0
aa(lp1680
I16
aI39
aI0
aI0
aaaI6
aa(lp1681
(lp1682
(lp1683
I8
aI0
aI11
aI0
aa(lp1684
I0
aI17
aI0
aI0
aa(lp1685
I15
aI27
aI34
aI0
aa(lp1686
I0
aI0
aI57
aI37
aaaI6
aa(lp1687
(lp1688
(lp1689
I31
aI31
aI12
aI0
aa(lp1690
I57
aI57
aI57
aI24
aa(lp1691
I6
aI3
aI57
aI57
aa(lp1692
I57
aI57
aI57
aI47
aaaI4
aa(lp1693
(lp1694
(lp1695
I8
aI0
aI0
aI0
aa(lp1696
I57
aI57
aI57
aI0
aa(lp1697
I36
aI30
aI57
aI57
aa(lp1698
I57
aI57
aI57
aI17
aaaI6
aa(lp1699
(lp1700
(lp1701
I0
aI0
aI0
aI0
aa(lp1702
I0
aI0
aI40
aI27
aa(lp1703
I0
aI0
aI10
aI28
aa(lp1704
I0
aI35
aI0
aI0
aaaI6
aa(lp1705
(lp1706
(lp1707
I0
aI3
aI1
aI11
aa(lp1708
I0
aI0
aI0
aI28
aa(lp1709
I0
aI0
aI0
aI44
aa(lp1710
I46
aI51
aI33
aI0
aaaI3
aa(lp1711
(lp1712
(lp1713
I11
aI21
aI16
aI0
aa(lp1714
I0
aI17
aI57
aI38
aa(lp1715
I57
aI0
aI7
aI0
aa(lp1716
I14
aI0
aI39
aI0
aaaI1
aa(lp1717
(lp1718
(lp1719
I0
aI40
aI1
aI25
aa(lp1720
I20
aI0
aI57
aI47
aa(lp1721
I57
aI33
aI0
aI37
aa(lp1722
I0
aI7
aI6
aI3
aaaI5
aa(lp1723
(lp1724
(lp1725
I0
aI1
aI3
aI4
aa(lp1726
I0
aI0
aI31
aI36
aa(lp1727
I0
aI44
aI0
aI0
aa(lp1728
I0
aI39
aI4
aI36
aaaI4
aa(lp1729
(lp1730
(lp1731
I1
aI57
aI0
aI2
aa(lp1732
I16
aI51
aI0
aI0
aa(lp1733
I3
aI24
aI0
aI38
aa(lp1734
I0
aI39
aI57
aI42
aaaI6
aa(lp1735
(lp1736
(lp1737
I0
aI0
aI0
aI0
aa(lp1738
I14
aI0
aI0
aI0
aa(lp1739
I27
aI0
aI0
aI0
aa(lp1740
I0
aI0
aI39
aI0
aaaI6
aa(lp1741
(lp1742
(lp1743
I0
aI0
aI1
aI47
aa(lp1744
I45
aI57
aI2
aI57
aa(lp1745
I0
aI0
aI19
aI18
aa(lp1746
I10
aI21
aI2
aI0
aaaI6
aa(lp1747
(lp1748
(lp1749
I57
aI31
aI5
aI38
aa(lp1750
I57
aI0
aI0
aI0
aa(lp1751
I19
aI0
aI0
aI57
aa(lp1752
I0
aI41
aI39
aI57
aaaI5
aa(lp1753
(lp1754
(lp1755
I24
aI0
aI0
aI43
aa(lp1756
I14
aI16
aI0
aI40
aa(lp1757
I0
aI0
aI0
aI17
aa(lp1758
I57
aI0
aI28
aI0
aaaI6
aa(lp1759
(lp1760
(lp1761
I0
aI7
aI45
aI57
aa(lp1762
I17
aI14
aI1
aI0
aa(lp1763
I57
aI0
aI42
aI0
aa(lp1764
I10
aI57
aI0
aI0
aaaI6
aa(lp1765
(lp1766
(lp1767
I0
aI22
aI0
aI7
aa(lp1768
I0
aI16
aI0
aI29
aa(lp1769
I8
aI0
aI46
aI0
aa(lp1770
I0
aI48
aI57
aI43
aaaI6
aa(lp1771
(lp1772
(lp1773
I23
aI48
aI0
aI0
aa(lp1774
I0
aI1
aI0
aI8
aa(lp1775
I45
aI0
aI35
aI0
aa(lp1776
I1
aI0
aI57
aI0
aaaI6
aa(lp1777
(lp1778
(lp1779
I45
aI16
aI0
aI7
aa(lp1780
I0
aI28
aI0
aI40
aa(lp1781
I0
aI30
aI0
aI0
aa(lp1782
I31
aI0
aI57
aI43
aaaI6
aa(lp1783
(lp1784
(lp1785
I1
aI0
aI16
aI28
aa(lp1786
I57
aI0
aI21
aI57
aa(lp1787
I0
aI47
aI57
aI0
aa(lp1788
I11
aI38
aI57
aI5
aaaI3
aa(lp1789
(lp1790
(lp1791
I1
aI2
aI15
aI0
aa(lp1792
I0
aI0
aI0
aI35
aa(lp1793
I57
aI57
aI21
aI28
aa(lp1794
I57
aI6
aI0
aI5
aaaI5
aa(lp1795
(lp1796
(lp1797
I6
aI7
aI16
aI0
aa(lp1798
I0
aI0
aI0
aI42
aa(lp1799
I57
aI57
aI35
aI28
aa(lp1800
I57
aI0
aI0
aI21
aaaI5
aa(lp1801
(lp1802
(lp1803
I0
aI57
aI0
aI0
aa(lp1804
I16
aI47
aI0
aI24
aa(lp1805
I57
aI57
aI27
aI44
aa(lp1806
I57
aI57
aI0
aI0
aaaI6
aa(lp1807
(lp1808
(lp1809
I11
aI57
aI32
aI39
aa(lp1810
I0
aI0
aI0
aI21
aa(lp1811
I57
aI57
aI44
aI36
aa(lp1812
I57
aI57
aI2
aI37
aaaI5
aa(lp1813
(lp1814
(lp1815
I0
aI1
aI7
aI3
aa(lp1816
I18
aI32
aI18
aI20
aa(lp1817
I0
aI6
aI39
aI0
aa(lp1818
I57
aI57
aI50
aI0
aaaI4
aa(lp1819
(lp1820
(lp1821
I57
aI41
aI20
aI0
aa(lp1822
I0
aI29
aI28
aI0
aa(lp1823
I8
aI0
aI48
aI0
aa(lp1824
I0
aI0
aI0
aI39
aaaI6
aa(lp1825
(lp1826
(lp1827
I43
aI57
aI23
aI8
aa(lp1828
I0
aI3
aI31
aI30
aa(lp1829
I19
aI19
aI26
aI0
aa(lp1830
I57
aI0
aI49
aI45
aaaI1
aa(lp1831
(lp1832
(lp1833
I0
aI0
aI0
aI1
aa(lp1834
I44
aI0
aI17
aI0
aa(lp1835
I27
aI0
aI57
aI17
aa(lp1836
I46
aI30
aI34
aI0
aaaI6
aa(lp1837
(lp1838
(lp1839
I46
aI15
aI0
aI3
aa(lp1840
I57
aI0
aI57
aI39
aa(lp1841
I57
aI0
aI57
aI41
aa(lp1842
I10
aI57
aI0
aI0
aaaI4
aa(lp1843
(lp1844
(lp1845
I1
aI0
aI37
aI9
aa(lp1846
I0
aI57
aI21
aI3
aa(lp1847
I38
aI0
aI27
aI36
aa(lp1848
I0
aI0
aI12
aI50
aaaI5
aa(lp1849
(lp1850
(lp1851
I1
aI30
aI18
aI8
aa(lp1852
I57
aI46
aI57
aI57
aa(lp1853
I0
aI47
aI34
aI28
aa(lp1854
I42
aI43
aI47
aI8
aaaI2
aa(lp1855
(lp1856
(lp1857
I0
aI13
aI30
aI0
aa(lp1858
I0
aI0
aI47
aI40
aa(lp1859
I5
aI0
aI0
aI0
aa(lp1860
I0
aI0
aI14
aI0
aaaI6
aa(lp1861
(lp1862
(lp1863
I23
aI57
aI3
aI28
aa(lp1864
I37
aI0
aI45
aI0
aa(lp1865
I0
aI0
aI57
aI0
aa(lp1866
I0
aI0
aI57
aI57
aaaI3
aa(lp1867
(lp1868
(lp1869
I16
aI0
aI47
aI0
aa(lp1870
I0
aI0
aI43
aI57
aa(lp1871
I0
aI0
aI25
aI33
aa(lp1872
I18
aI0
aI0
aI0
aaaI6
aa(lp1873
(lp1874
(lp1875
I0
aI56
aI1
aI0
aa(lp1876
I23
aI0
aI0
aI28
aa(lp1877
I57
aI9
aI57
aI0
aa(lp1878
I0
aI0
aI0
aI12
aaaI6
aa(lp1879
(lp1880
(lp1881
I1
aI18
aI44
aI0
aa(lp1882
I41
aI30
aI10
aI0
aa(lp1883
I57
aI57
aI57
aI38
aa(lp1884
I0
aI57
aI2
aI0
aaaI6
aa(lp1885
(lp1886
(lp1887
I57
aI32
aI1
aI0
aa(lp1888
I0
aI57
aI57
aI43
aa(lp1889
I33
aI0
aI41
aI27
aa(lp1890
I16
aI50
aI57
aI11
aaaI6
aa(lp1891
(lp1892
(lp1893
I25
aI2
aI33
aI0
aa(lp1894
I0
aI15
aI11
aI0
aa(lp1895
I43
aI0
aI0
aI30
aa(lp1896
I8
aI0
aI0
aI51
aaaI2
aa(lp1897
(lp1898
(lp1899
I5
aI9
aI0
aI1
aa(lp1900
I0
aI13
aI57
aI27
aa(lp1901
I31
aI31
aI41
aI38
aa(lp1902
I2
aI0
aI0
aI0
aaaI1
aa(lp1903
(lp1904
(lp1905
I8
aI5
aI0
aI57
aa(lp1906
I0
aI0
aI57
aI0
aa(lp1907
I23
aI21
aI0
aI0
aa(lp1908
I39
aI0
aI1
aI0
aaaI6
aa(lp1909
(lp1910
(lp1911
I23
aI11
aI13
aI0
aa(lp1912
I0
aI0
aI0
aI0
aa(lp1913
I0
aI0
aI57
aI49
aa(lp1914
I0
aI0
aI9
aI57
aaaI2
aa(lp1915
(lp1916
(lp1917
I22
aI1
aI0
aI1
aa(lp1918
I20
aI0
aI57
aI57
aa(lp1919
I43
aI38
aI27
aI27
aa(lp1920
I57
aI0
aI0
aI11
aaaI2
aa(lp1921
(lp1922
(lp1923
I11
aI14
aI5
aI0
aa(lp1924
I0
aI0
aI57
aI57
aa(lp1925
I29
aI0
aI0
aI29
aa(lp1926
I57
aI1
aI0
aI57
aaaI2
aa(lp1927
(lp1928
(lp1929
I0
aI46
aI0
aI0
aa(lp1930
I18
aI0
aI57
aI57
aa(lp1931
I0
aI31
aI29
aI30
aa(lp1932
I57
aI0
aI18
aI57
aaaI6
aa(lp1933
(lp1934
(lp1935
I0
aI0
aI0
aI0
aa(lp1936
I11
aI16
aI57
aI57
aa(lp1937
I46
aI0
aI27
aI50
aa(lp1938
I57
aI46
aI34
aI57
aaaI6
aa(lp1939
(lp1940
(lp1941
I2
aI0
aI1
aI3
aa(lp1942
I57
aI21
aI57
aI57
aa(lp1943
I41
aI0
aI0
aI27
aa(lp1944
I57
aI42
aI41
aI57
aaaI2
aa(lp1945
(lp1946
(lp1947
I7
aI16
aI0
aI5
aa(lp1948
I57
aI45
aI17
aI0
aa(lp1949
I0
aI19
aI0
aI0
aa(lp1950
I0
aI57
aI18
aI0
aaaI6
aa(lp1951
(lp1952
(lp1953
I4
aI0
aI57
aI0
aa(lp1954
I57
aI26
aI30
aI57
aa(lp1955
I0
aI0
aI0
aI30
aa(lp1956
I37
aI57
aI39
aI50
aaaI6
aa(lp1957
(lp1958
(lp1959
I28
aI22
aI1
aI0
aa(lp1960
I0
aI0
aI42
aI0
aa(lp1961
I8
aI39
aI0
aI11
aa(lp1962
I57
aI0
aI1
aI5
aaaI3
aa(lp1963
(lp1964
(lp1965
I21
aI0
aI0
aI0
aa(lp1966
I0
aI14
aI46
aI0
aa(lp1967
I0
aI0
aI0
aI8
aa(lp1968
I57
aI0
aI0
aI21
aaaI6
aa(lp1969
(lp1970
(lp1971
I7
aI0
aI1
aI57
aa(lp1972
I0
aI47
aI0
aI0
aa(lp1973
I0
aI48
aI50
aI0
aa(lp1974
I57
aI39
aI0
aI0
aaaI6
aa(lp1975
(lp1976
(lp1977
I7
aI0
aI15
aI57
aa(lp1978
I0
aI3
aI0
aI29
aa(lp1979
I0
aI0
aI36
aI0
aa(lp1980
I57
aI24
aI0
aI0
aaaI6
aa(lp1981
(lp1982
(lp1983
I4
aI57
aI35
aI18
aa(lp1984
I57
aI57
aI12
aI57
aa(lp1985
I0
aI57
aI27
aI0
aa(lp1986
I41
aI28
aI0
aI45
aaaI1
aa(lp1987
(lp1988
(lp1989
I11
aI57
aI0
aI21
aa(lp1990
I57
aI57
aI16
aI57
aa(lp1991
I3
aI57
aI0
aI0
aa(lp1992
I0
aI43
aI3
aI0
aaaI6
aa(lp1993
(lp1994
(lp1995
I0
aI18
aI3
aI0
aa(lp1996
I0
aI0
aI14
aI0
aa(lp1997
I28
aI5
aI0
aI50
aa(lp1998
I9
aI15
aI21
aI49
aaaI6
aa(lp1999
(lp2000
(lp2001
I57
aI20
aI0
aI20
aa(lp2002
I35
aI30
aI0
aI40
aa(lp2003
I45
aI0
aI0
aI46
aa(lp2004
I0
aI0
aI27
aI0
aaaI6
aa(lp2005
(lp2006
(lp2007
I0
aI1
aI27
aI12
aa(lp2008
I0
aI0
aI0
aI57
aa(lp2009
I57
aI0
aI0
aI0
aa(lp2010
I5
aI4
aI31
aI0
aaaI1
aa(lp2011
(lp2012
(lp2013
I42
aI0
aI0
aI0
aa(lp2014
I0
aI18
aI0
aI12
aa(lp2015
I0
aI23
aI15
aI57
aa(lp2016
I0
aI1
aI36
aI39
aaaI6
aa(lp2017
(lp2018
(lp2019
I0
aI32
aI29
aI7
aa(lp2020
I0
aI5
aI0
aI0
aa(lp2021
I34
aI49
aI33
aI57
aa(lp2022
I13
aI2
aI57
aI12
aaaI1
aa(lp2023
(lp2024
(lp2025
I39
aI3
aI57
aI11
aa(lp2026
I57
aI57
aI57
aI31
aa(lp2027
I0
aI38
aI49
aI57
aa(lp2028
I57
aI0
aI57
aI57
aaaI1
aa(lp2029
(lp2030
(lp2031
I17
aI0
aI0
aI28
aa(lp2032
I0
aI0
aI42
aI34
aa(lp2033
I0
aI46
aI11
aI49
aa(lp2034
I0
aI42
aI39
aI0
aaaI6
aa(lp2035
(lp2036
(lp2037
I8
aI50
aI24
aI0
aa(lp2038
I0
aI29
aI14
aI0
aa(lp2039
I33
aI49
aI33
aI0
aa(lp2040
I0
aI50
aI1
aI0
aaaI1
aa(lp2041
(lp2042
(lp2043
I32
aI3
aI57
aI1
aa(lp2044
I33
aI57
aI0
aI22
aa(lp2045
I31
aI27
aI57
aI0
aa(lp2046
I0
aI57
aI8
aI0
aaaI2
aa(lp2047
(lp2048
(lp2049
I16
aI2
aI57
aI0
aa(lp2050
I17
aI57
aI0
aI14
aa(lp2051
I43
aI46
aI57
aI0
aa(lp2052
I57
aI57
aI39
aI25
aaaI6
aa(lp2053
(lp2054
(lp2055
I0
aI22
aI4
aI12
aa(lp2056
I43
aI0
aI25
aI43
aa(lp2057
I47
aI0
aI33
aI6
aa(lp2058
I0
aI57
aI0
aI57
aaaI4
aa(lp2059
(lp2060
(lp2061
I5
aI0
aI18
aI17
aa(lp2062
I8
aI15
aI57
aI57
aa(lp2063
I37
aI41
aI0
aI0
aa(lp2064
I43
aI33
aI0
aI0
aaaI5
aa(lp2065
(lp2066
(lp2067
I0
aI25
aI0
aI1
aa(lp2068
I8
aI14
aI57
aI57
aa(lp2069
I0
aI38
aI36
aI38
aa(lp2070
I0
aI0
aI0
aI15
aaaI6
aa(lp2071
(lp2072
(lp2073
I0
aI0
aI1
aI33
aa(lp2074
I25
aI17
aI57
aI57
aa(lp2075
I29
aI0
aI0
aI41
aa(lp2076
I0
aI0
aI0
aI19
aaaI6
aa(lp2077
(lp2078
(lp2079
I3
aI0
aI0
aI13
aa(lp2080
I26
aI0
aI16
aI20
aa(lp2081
I0
aI47
aI0
aI0
aa(lp2082
I0
aI13
aI57
aI0
aaaI6
aa(lp2083
(lp2084
(lp2085
I4
aI10
aI14
aI39
aa(lp2086
I57
aI57
aI57
aI19
aa(lp2087
I57
aI0
aI57
aI1
aa(lp2088
I0
aI0
aI37
aI0
aaaI6
aa(lp2089
(lp2090
(lp2091
I0
aI0
aI0
aI0
aa(lp2092
I41
aI16
aI51
aI0
aa(lp2093
I0
aI32
aI0
aI0
aa(lp2094
I57
aI10
aI14
aI0
aaaI6
aa(lp2095
(lp2096
(lp2097
I0
aI0
aI0
aI0
aa(lp2098
I36
aI46
aI0
aI0
aa(lp2099
I16
aI0
aI31
aI28
aa(lp2100
I0
aI42
aI9
aI0
aaaI6
aa(lp2101
(lp2102
(lp2103
I0
aI0
aI0
aI0
aa(lp2104
I57
aI57
aI0
aI27
aa(lp2105
I57
aI0
aI36
aI57
aa(lp2106
I43
aI57
aI18
aI57
aaaI6
aa(lp2107
(lp2108
(lp2109
I0
aI0
aI0
aI40
aa(lp2110
I0
aI0
aI49
aI0
aa(lp2111
I0
aI5
aI27
aI0
aa(lp2112
I0
aI14
aI19
aI0
aaaI6
aa(lp2113
(lp2114
(lp2115
I40
aI3
aI18
aI0
aa(lp2116
I0
aI30
aI0
aI0
aa(lp2117
I0
aI0
aI28
aI0
aa(lp2118
I8
aI0
aI49
aI47
aaaI4
aa(lp2119
(lp2120
(lp2121
I0
aI0
aI3
aI37
aa(lp2122
I27
aI47
aI57
aI14
aa(lp2123
I0
aI0
aI0
aI27
aa(lp2124
I0
aI39
aI18
aI14
aaaI6
aa(lp2125
(lp2126
(lp2127
I3
aI0
aI17
aI12
aa(lp2128
I0
aI57
aI1
aI0
aa(lp2129
I31
aI57
aI57
aI29
aa(lp2130
I0
aI39
aI57
aI57
aaaI1
aa(lp2131
(lp2132
(lp2133
I0
aI0
aI33
aI35
aa(lp2134
I57
aI27
aI57
aI57
aa(lp2135
I0
aI0
aI0
aI0
aa(lp2136
I0
aI39
aI57
aI7
aaaI6
aa(lp2137
(lp2138
(lp2139
I6
aI0
aI0
aI0
aa(lp2140
I0
aI0
aI48
aI48
aa(lp2141
I0
aI48
aI0
aI0
aa(lp2142
I39
aI0
aI0
aI45
aaaI6
aa(lp2143
(lp2144
(lp2145
I5
aI7
aI9
aI0
aa(lp2146
I40
aI0
aI51
aI17
aa(lp2147
I29
aI0
aI0
aI0
aa(lp2148
I0
aI0
aI0
aI38
aaaI1
aa(lp2149
(lp2150
(lp2151
I3
aI0
aI30
aI1
aa(lp2152
I0
aI0
aI0
aI9
aa(lp2153
I0
aI0
aI0
aI4
aa(lp2154
I45
aI0
aI0
aI0
aaaI1
aa(lp2155
(lp2156
(lp2157
I0
aI0
aI26
aI0
aa(lp2158
I49
aI14
aI11
aI0
aa(lp2159
I57
aI12
aI5
aI0
aa(lp2160
I57
aI0
aI0
aI34
aaaI6
aa(lp2161
(lp2162
(lp2163
I0
aI13
aI1
aI1
aa(lp2164
I0
aI31
aI0
aI0
aa(lp2165
I57
aI23
aI57
aI27
aa(lp2166
I57
aI57
aI51
aI57
aaaI3
aa(lp2167
(lp2168
(lp2169
I2
aI50
aI22
aI1
aa(lp2170
I57
aI0
aI0
aI10
aa(lp2171
I0
aI0
aI0
aI0
aa(lp2172
I0
aI0
aI34
aI57
aaaI4
aa(lp2173
(lp2174
(lp2175
I7
aI26
aI0
aI1
aa(lp2176
I0
aI0
aI17
aI0
aa(lp2177
I3
aI0
aI0
aI0
aa(lp2178
I45
aI39
aI28
aI40
aaaI4
aa(lp2179
(lp2180
(lp2181
I13
aI57
aI1
aI44
aa(lp2182
I42
aI23
aI57
aI0
aa(lp2183
I27
aI39
aI3
aI51
aa(lp2184
I45
aI24
aI31
aI39
aaaI5
aa(lp2185
(lp2186
(lp2187
I0
aI0
aI0
aI57
aa(lp2188
I0
aI40
aI0
aI49
aa(lp2189
I12
aI27
aI27
aI57
aa(lp2190
I40
aI1
aI24
aI2
aaaI6
aa(lp2191
(lp2192
(lp2193
I0
aI0
aI7
aI57
aa(lp2194
I0
aI0
aI35
aI10
aa(lp2195
I0
aI0
aI39
aI57
aa(lp2196
I0
aI5
aI41
aI0
aaaI6
aa(lp2197
(lp2198
(lp2199
I10
aI0
aI1
aI4
aa(lp2200
I27
aI51
aI38
aI57
aa(lp2201
I0
aI31
aI30
aI31
aa(lp2202
I17
aI0
aI40
aI12
aaaI1
aa(lp2203
(lp2204
(lp2205
I57
aI49
aI20
aI29
aa(lp2206
I21
aI21
aI0
aI57
aa(lp2207
I0
aI50
aI0
aI57
aa(lp2208
I57
aI57
aI29
aI57
aaaI2
aa(lp2209
(lp2210
(lp2211
I57
aI7
aI41
aI10
aa(lp2212
I25
aI47
aI57
aI57
aa(lp2213
I45
aI0
aI0
aI57
aa(lp2214
I57
aI57
aI30
aI57
aaaI6
aa(lp2215
(lp2216
(lp2217
I0
aI22
aI7
aI1
aa(lp2218
I18
aI0
aI0
aI43
aa(lp2219
I0
aI0
aI49
aI0
aa(lp2220
I15
aI0
aI57
aI25
aaaI2
aa(lp2221
(lp2222
(lp2223
I0
aI57
aI0
aI45
aa(lp2224
I57
aI57
aI0
aI16
aa(lp2225
I0
aI0
aI0
aI31
aa(lp2226
I6
aI4
aI57
aI0
aaaI6
aa(lp2227
(lp2228
(lp2229
I0
aI57
aI29
aI40
aa(lp2230
I57
aI57
aI0
aI32
aa(lp2231
I0
aI0
aI41
aI0
aa(lp2232
I3
aI50
aI57
aI39
aaaI6
aa(lp2233
(lp2234
(lp2235
I14
aI57
aI1
aI3
aa(lp2236
I57
aI57
aI0
aI1
aa(lp2237
I0
aI31
aI0
aI33
aa(lp2238
I10
aI0
aI57
aI0
aaaI1
aa(lp2239
(lp2240
(lp2241
I18
aI11
aI1
aI50
aa(lp2242
I0
aI57
aI57
aI43
aa(lp2243
I0
aI0
aI15
aI27
aa(lp2244
I0
aI0
aI57
aI7
aaaI2
aa(lp2245
(lp2246
(lp2247
I23
aI0
aI0
aI1
aa(lp2248
I36
aI57
aI57
aI6
aa(lp2249
I0
aI0
aI12
aI0
aa(lp2250
I47
aI42
aI57
aI0
aaaI6
aa(lp2251
(lp2252
(lp2253
I23
aI4
aI1
aI1
aa(lp2254
I43
aI57
aI57
aI7
aa(lp2255
I0
aI0
aI18
aI0
aa(lp2256
I5
aI48
aI57
aI0
aaaI5
aa(lp2257
(lp2258
(lp2259
I11
aI0
aI0
aI19
aa(lp2260
I57
aI57
aI57
aI9
aa(lp2261
I0
aI48
aI0
aI27
aa(lp2262
I0
aI57
aI57
aI11
aaaI6
aa(lp2263
(lp2264
(lp2265
I0
aI25
aI30
aI18
aa(lp2266
I0
aI0
aI48
aI37
aa(lp2267
I57
aI27
aI45
aI16
aa(lp2268
I21
aI57
aI57
aI0
aaaI1
aa(lp2269
(lp2270
(lp2271
I1
aI22
aI0
aI12
aa(lp2272
I0
aI0
aI0
aI4
aa(lp2273
I57
aI0
aI0
aI34
aa(lp2274
I0
aI57
aI57
aI0
aaaI4
aa(lp2275
(lp2276
(lp2277
I0
aI22
aI25
aI57
aa(lp2278
I0
aI0
aI41
aI37
aa(lp2279
I57
aI0
aI34
aI4
aa(lp2280
I57
aI0
aI5
aI29
aaaI6
aa(lp2281
(lp2282
(lp2283
I0
aI30
aI0
aI0
aa(lp2284
I0
aI18
aI0
aI0
aa(lp2285
I0
aI0
aI0
aI0
aa(lp2286
I57
aI28
aI30
aI28
aaaI6
aa(lp2287
(lp2288
(lp2289
I8
aI0
aI0
aI0
aa(lp2290
I0
aI29
aI42
aI0
aa(lp2291
I0
aI27
aI27
aI0
aa(lp2292
I22
aI0
aI45
aI0
aaaI6
aa(lp2293
(lp2294
(lp2295
I32
aI1
aI20
aI0
aa(lp2296
I18
aI0
aI0
aI0
aa(lp2297
I46
aI31
aI0
aI29
aa(lp2298
I6
aI0
aI0
aI3
aaaI6
aa(lp2299
(lp2300
(lp2301
I4
aI1
aI1
aI3
aa(lp2302
I0
aI41
aI0
aI0
aa(lp2303
I0
aI27
aI0
aI27
aa(lp2304
I0
aI41
aI0
aI0
aaaI3
aa(lp2305
(lp2306
(lp2307
I50
aI1
aI0
aI1
aa(lp2308
I39
aI57
aI57
aI1
aa(lp2309
I0
aI0
aI0
aI13
aa(lp2310
I57
aI9
aI0
aI31
aaaI6
aa(lp2311
(lp2312
(lp2313
I30
aI0
aI0
aI47
aa(lp2314
I14
aI0
aI0
aI0
aa(lp2315
I38
aI0
aI0
aI0
aa(lp2316
I43
aI0
aI45
aI45
aaaI6
aa(lp2317
(lp2318
(lp2319
I47
aI1
aI1
aI0
aa(lp2320
I16
aI0
aI32
aI57
aa(lp2321
I28
aI37
aI0
aI0
aa(lp2322
I0
aI41
aI39
aI16
aaaI1
aa(lp2323
(lp2324
(lp2325
I15
aI19
aI0
aI27
aa(lp2326
I57
aI6
aI0
aI0
aa(lp2327
I6
aI57
aI57
aI57
aa(lp2328
I31
aI57
aI11
aI0
aaaI3
aa(lp2329
(lp2330
(lp2331
I0
aI36
aI2
aI0
aa(lp2332
I20
aI0
aI15
aI14
aa(lp2333
I40
aI1
aI41
aI37
aa(lp2334
I0
aI0
aI0
aI0
aaaI6
aa(lp2335
(lp2336
(lp2337
I18
aI17
aI9
aI57
aa(lp2338
I0
aI57
aI0
aI24
aa(lp2339
I2
aI0
aI0
aI27
aa(lp2340
I43
aI57
aI0
aI41
aaaI6
aa(lp2341
(lp2342
(lp2343
I15
aI21
aI1
aI57
aa(lp2344
I22
aI35
aI0
aI0
aa(lp2345
I31
aI40
aI4
aI0
aa(lp2346
I0
aI12
aI0
aI57
aaaI6
aa(lp2347
(lp2348
(lp2349
I10
aI25
aI14
aI57
aa(lp2350
I0
aI34
aI0
aI0
aa(lp2351
I57
aI0
aI1
aI35
aa(lp2352
I45
aI39
aI46
aI57
aaaI4
aa(lp2353
(lp2354
(lp2355
I4
aI0
aI30
aI1
aa(lp2356
I10
aI0
aI0
aI22
aa(lp2357
I39
aI0
aI0
aI0
aa(lp2358
I39
aI0
aI0
aI42
aaaI4
aa(lp2359
(lp2360
(lp2361
I0
aI0
aI33
aI0
aa(lp2362
I22
aI24
aI57
aI57
aa(lp2363
I0
aI57
aI34
aI12
aa(lp2364
I0
aI57
aI12
aI45
aaaI6
aa(lp2365
(lp2366
(lp2367
I0
aI0
aI1
aI0
aa(lp2368
I32
aI57
aI0
aI17
aa(lp2369
I50
aI57
aI0
aI27
aa(lp2370
I45
aI0
aI0
aI0
aaaI6
aa(lp2371
(lp2372
(lp2373
I0
aI1
aI0
aI0
aa(lp2374
I0
aI28
aI0
aI17
aa(lp2375
I4
aI0
aI0
aI0
aa(lp2376
I0
aI10
aI0
aI0
aaaI6
aa(lp2377
(lp2378
(lp2379
I57
aI0
aI20
aI9
aa(lp2380
I30
aI30
aI0
aI57
aa(lp2381
I0
aI0
aI57
aI41
aa(lp2382
I57
aI39
aI28
aI27
aaaI6
aa(lp2383
(lp2384
(lp2385
I0
aI0
aI57
aI0
aa(lp2386
I57
aI0
aI26
aI57
aa(lp2387
I0
aI29
aI57
aI12
aa(lp2388
I0
aI0
aI51
aI0
aaaI6
aa(lp2389
(lp2390
(lp2391
I37
aI0
aI7
aI14
aa(lp2392
I47
aI57
aI0
aI32
aa(lp2393
I34
aI57
aI0
aI0
aa(lp2394
I39
aI28
aI15
aI0
aaaI5
aa(lp2395
(lp2396
(lp2397
I0
aI45
aI1
aI0
aa(lp2398
I21
aI57
aI57
aI0
aa(lp2399
I0
aI57
aI0
aI27
aa(lp2400
I0
aI36
aI0
aI0
aaaI6
aa(lp2401
(lp2402
(lp2403
I14
aI0
aI10
aI7
aa(lp2404
I14
aI57
aI57
aI13
aa(lp2405
I0
aI57
aI0
aI46
aa(lp2406
I0
aI0
aI3
aI37
aaaI6
aa(lp2407
(lp2408
(lp2409
I0
aI26
aI0
aI31
aa(lp2410
I46
aI57
aI57
aI57
aa(lp2411
I0
aI57
aI0
aI29
aa(lp2412
I0
aI0
aI17
aI57
aaaI6
aa(lp2413
(lp2414
(lp2415
I0
aI0
aI5
aI21
aa(lp2416
I0
aI14
aI48
aI0
aa(lp2417
I42
aI57
aI57
aI11
aa(lp2418
I0
aI1
aI48
aI50
aaaI6
aa(lp2419
(lp2420
(lp2421
I27
aI0
aI1
aI5
aa(lp2422
I18
aI18
aI0
aI0
aa(lp2423
I0
aI0
aI0
aI20
aa(lp2424
I0
aI0
aI0
aI39
aaaI2
aa(lp2425
(lp2426
(lp2427
I1
aI4
aI1
aI23
aa(lp2428
I14
aI57
aI57
aI0
aa(lp2429
I57
aI57
aI57
aI3
aa(lp2430
I0
aI43
aI45
aI0
aaaI6
aa(lp2431
(lp2432
(lp2433
I1
aI1
aI0
aI30
aa(lp2434
I0
aI0
aI0
aI25
aa(lp2435
I0
aI0
aI27
aI0
aa(lp2436
I0
aI22
aI39
aI15
aaaI3
aa(lp2437
(lp2438
(lp2439
I0
aI0
aI0
aI30
aa(lp2440
I57
aI46
aI57
aI0
aa(lp2441
I0
aI4
aI57
aI57
aa(lp2442
I0
aI57
aI57
aI0
aaaI6
aa(lp2443
(lp2444
(lp2445
I0
aI0
aI57
aI0
aa(lp2446
I57
aI25
aI57
aI57
aa(lp2447
I9
aI30
aI6
aI8
aa(lp2448
I0
aI49
aI0
aI38
aaaI6
aa(lp2449
(lp2450
(lp2451
I23
aI0
aI0
aI35
aa(lp2452
I0
aI40
aI48
aI0
aa(lp2453
I0
aI0
aI0
aI27
aa(lp2454
I14
aI0
aI0
aI27
aaaI6
aa(lp2455
(lp2456
(lp2457
I12
aI0
aI34
aI57
aa(lp2458
I0
aI25
aI57
aI57
aa(lp2459
I0
aI0
aI0
aI0
aa(lp2460
I0
aI8
aI31
aI0
aaaI6
aa(lp2461
(lp2462
(lp2463
I16
aI46
aI33
aI0
aa(lp2464
I30
aI57
aI0
aI57
aa(lp2465
I0
aI57
aI30
aI57
aa(lp2466
I14
aI39
aI0
aI48
aaaI5
aa(lp2467
(lp2468
(lp2469
I25
aI44
aI0
aI20
aa(lp2470
I14
aI57
aI32
aI57
aa(lp2471
I37
aI57
aI5
aI57
aa(lp2472
I6
aI0
aI0
aI0
aaaI2
aa(lp2473
(lp2474
(lp2475
I0
aI16
aI38
aI13
aa(lp2476
I44
aI57
aI50
aI57
aa(lp2477
I57
aI57
aI47
aI57
aa(lp2478
I57
aI31
aI50
aI0
aaaI6
aa(lp2479
(lp2480
(lp2481
I12
aI22
aI25
aI4
aa(lp2482
I57
aI14
aI14
aI50
aa(lp2483
I0
aI31
aI0
aI0
aa(lp2484
I0
aI0
aI0
aI0
aaaI1
aa(lp2485
(lp2486
(lp2487
I0
aI9
aI16
aI5
aa(lp2488
I57
aI57
aI57
aI26
aa(lp2489
I50
aI0
aI27
aI57
aa(lp2490
I13
aI0
aI42
aI0
aaaI1
aa(lp2491
(lp2492
(lp2493
I1
aI0
aI16
aI11
aa(lp2494
I14
aI14
aI36
aI33
aa(lp2495
I51
aI6
aI15
aI0
aa(lp2496
I0
aI25
aI0
aI57
aaaI6
aa(lp2497
(lp2498
(lp2499
I9
aI17
aI14
aI57
aa(lp2500
I0
aI0
aI39
aI0
aa(lp2501
I0
aI36
aI0
aI16
aa(lp2502
I49
aI0
aI48
aI57
aaaI1
aa(lp2503
(lp2504
(lp2505
I24
aI4
aI38
aI57
aa(lp2506
I15
aI17
aI0
aI0
aa(lp2507
I43
aI0
aI0
aI57
aa(lp2508
I19
aI47
aI22
aI57
aaaI6
aa(lp2509
(lp2510
(lp2511
I0
aI57
aI18
aI0
aa(lp2512
I16
aI17
aI14
aI47
aa(lp2513
I37
aI27
aI57
aI27
aa(lp2514
I1
aI0
aI0
aI57
aaaI6
aa(lp2515
(lp2516
(lp2517
I50
aI32
aI7
aI57
aa(lp2518
I38
aI48
aI0
aI34
aa(lp2519
I0
aI0
aI27
aI0
aa(lp2520
I16
aI0
aI2
aI51
aaaI2
aa(lp2521
(lp2522
(lp2523
I24
aI0
aI0
aI36
aa(lp2524
I0
aI0
aI0
aI0
aa(lp2525
I0
aI0
aI10
aI0
aa(lp2526
I47
aI0
aI0
aI18
aaaI6
aa(lp2527
(lp2528
(lp2529
I34
aI8
aI46
aI0
aa(lp2530
I0
aI17
aI0
aI14
aa(lp2531
I27
aI27
aI42
aI22
aa(lp2532
I19
aI49
aI39
aI0
aaaI4
aa(lp2533
(lp2534
(lp2535
I0
aI0
aI0
aI42
aa(lp2536
I0
aI45
aI30
aI0
aa(lp2537
I0
aI33
aI0
aI45
aa(lp2538
I0
aI40
aI19
aI57
aaaI6
aa(lp2539
(lp2540
(lp2541
I27
aI4
aI7
aI0
aa(lp2542
I29
aI50
aI0
aI0
aa(lp2543
I19
aI0
aI0
aI41
aa(lp2544
I8
aI0
aI46
aI0
aaaI3
aa(lp2545
(lp2546
(lp2547
I0
aI11
aI19
aI2
aa(lp2548
I21
aI57
aI0
aI18
aa(lp2549
I0
aI51
aI31
aI49
aa(lp2550
I21
aI57
aI43
aI3
aaaI4
aa(lp2551
(lp2552
(lp2553
I13
aI29
aI57
aI24
aa(lp2554
I57
aI57
aI9
aI0
aa(lp2555
I0
aI44
aI38
aI0
aa(lp2556
I0
aI57
aI0
aI39
aaaI4
aa(lp2557
(lp2558
(lp2559
I0
aI29
aI18
aI13
aa(lp2560
I0
aI44
aI14
aI0
aa(lp2561
I36
aI40
aI0
aI0
aa(lp2562
I0
aI29
aI0
aI0
aaaI6
aa(lp2563
(lp2564
(lp2565
I36
aI45
aI2
aI57
aa(lp2566
I46
aI0
aI0
aI39
aa(lp2567
I29
aI0
aI0
aI0
aa(lp2568
I0
aI31
aI49
aI57
aaaI6
aa(lp2569
(lp2570
(lp2571
I11
aI0
aI2
aI57
aa(lp2572
I0
aI14
aI45
aI46
aa(lp2573
I27
aI23
aI0
aI0
aa(lp2574
I0
aI29
aI0
aI57
aaaI6
aa(lp2575
(lp2576
(lp2577
I26
aI30
aI0
aI1
aa(lp2578
I21
aI0
aI0
aI3
aa(lp2579
I0
aI0
aI0
aI0
aa(lp2580
I0
aI9
aI45
aI0
aaaI1
aa(lp2581
(lp2582
(lp2583
I57
aI0
aI7
aI0
aa(lp2584
I57
aI27
aI0
aI20
aa(lp2585
I57
aI41
aI28
aI0
aa(lp2586
I9
aI8
aI0
aI0
aaaI6
aa(lp2587
(lp2588
(lp2589
I0
aI15
aI1
aI32
aa(lp2590
I0
aI0
aI6
aI0
aa(lp2591
I27
aI27
aI23
aI29
aa(lp2592
I0
aI0
aI0
aI46
aaaI5
aa(lp2593
(lp2594
(lp2595
I3
aI18
aI0
aI9
aa(lp2596
I11
aI41
aI38
aI16
aa(lp2597
I50
aI31
aI6
aI57
aa(lp2598
I43
aI39
aI39
aI57
aaaI5
aa(lp2599
(lp2600
(lp2601
I11
aI5
aI4
aI5
aa(lp2602
I0
aI0
aI0
aI0
aa(lp2603
I57
aI14
aI0
aI57
aa(lp2604
I2
aI42
aI45
aI57
aaaI3
aa(lp2605
(lp2606
(lp2607
I35
aI0
aI16
aI1
aa(lp2608
I0
aI57
aI38
aI43
aa(lp2609
I57
aI0
aI57
aI36
aa(lp2610
I0
aI19
aI57
aI20
aaaI1
aa(lp2611
(lp2612
(lp2613
I21
aI16
aI12
aI24
aa(lp2614
I0
aI0
aI0
aI0
aa(lp2615
I57
aI57
aI0
aI0
aa(lp2616
I10
aI0
aI49
aI0
aaaI5
aa(lp2617
(lp2618
(lp2619
I0
aI9
aI27
aI0
aa(lp2620
I0
aI57
aI57
aI57
aa(lp2621
I0
aI44
aI57
aI48
aa(lp2622
I4
aI0
aI34
aI0
aaaI6
aa(lp2623
(lp2624
(lp2625
I8
aI25
aI0
aI47
aa(lp2626
I0
aI0
aI14
aI0
aa(lp2627
I29
aI57
aI0
aI20
aa(lp2628
I17
aI51
aI0
aI39
aaaI3
aa(lp2629
(lp2630
(lp2631
I19
aI57
aI41
aI2
aa(lp2632
I57
aI57
aI0
aI57
aa(lp2633
I30
aI57
aI34
aI49
aa(lp2634
I25
aI0
aI0
aI0
aaaI6
aa(lp2635
(lp2636
(lp2637
I13
aI57
aI0
aI8
aa(lp2638
I57
aI57
aI28
aI57
aa(lp2639
I9
aI57
aI0
aI0
aa(lp2640
I0
aI0
aI16
aI0
aaaI6
aa(lp2641
(lp2642
(lp2643
I0
aI0
aI0
aI1
aa(lp2644
I35
aI8
aI0
aI20
aa(lp2645
I0
aI15
aI39
aI0
aa(lp2646
I42
aI30
aI46
aI0
aaaI6
aa(lp2647
(lp2648
(lp2649
I0
aI36
aI10
aI1
aa(lp2650
I0
aI0
aI17
aI25
aa(lp2651
I34
aI15
aI0
aI0
aa(lp2652
I0
aI0
aI0
aI50
aaaI3
aa(lp2653
(lp2654
(lp2655
I15
aI10
aI0
aI3
aa(lp2656
I0
aI0
aI30
aI0
aa(lp2657
I43
aI51
aI33
aI0
aa(lp2658
I0
aI35
aI0
aI0
aaaI2
aa(lp2659
(lp2660
(lp2661
I1
aI46
aI16
aI12
aa(lp2662
I0
aI36
aI0
aI38
aa(lp2663
I0
aI15
aI0
aI0
aa(lp2664
I50
aI0
aI0
aI0
aaaI4
aa(lp2665
(lp2666
(lp2667
I21
aI50
aI0
aI0
aa(lp2668
I0
aI17
aI0
aI0
aa(lp2669
I39
aI34
aI0
aI0
aa(lp2670
I0
aI39
aI47
aI9
aaaI6
aa(lp2671
(lp2672
(lp2673
I0
aI0
aI0
aI11
aa(lp2674
I0
aI32
aI24
aI0
aa(lp2675
I0
aI33
aI27
aI0
aa(lp2676
I42
aI0
aI0
aI16
aaaI6
aa(lp2677
(lp2678
(lp2679
I0
aI32
aI15
aI7
aa(lp2680
I0
aI16
aI1
aI0
aa(lp2681
I47
aI0
aI0
aI41
aa(lp2682
I0
aI0
aI0
aI0
aaaI4
aa(lp2683
(lp2684
(lp2685
I0
aI0
aI12
aI22
aa(lp2686
I0
aI0
aI25
aI0
aa(lp2687
I27
aI18
aI30
aI57
aa(lp2688
I14
aI0
aI57
aI13
aaaI6
aa(lp2689
(lp2690
(lp2691
I9
aI39
aI57
aI1
aa(lp2692
I0
aI49
aI21
aI14
aa(lp2693
I0
aI30
aI0
aI0
aa(lp2694
I31
aI18
aI0
aI0
aaaI2
aa(lp2695
(lp2696
(lp2697
I3
aI0
aI10
aI12
aa(lp2698
I0
aI57
aI37
aI0
aa(lp2699
I57
aI57
aI51
aI57
aa(lp2700
I0
aI0
aI51
aI45
aaaI6
aa(lp2701
(lp2702
(lp2703
I47
aI57
aI34
aI13
aa(lp2704
I2
aI37
aI0
aI1
aa(lp2705
I0
aI0
aI38
aI57
aa(lp2706
I39
aI57
aI0
aI31
aaaI1
aa(lp2707
(lp2708
(lp2709
I0
aI7
aI28
aI15
aa(lp2710
I36
aI25
aI0
aI57
aa(lp2711
I57
aI11
aI0
aI57
aa(lp2712
I38
aI0
aI0
aI50
aaaI6
aa(lp2713
(lp2714
(lp2715
I0
aI0
aI2
aI0
aa(lp2716
I0
aI0
aI14
aI0
aa(lp2717
I0
aI0
aI0
aI29
aa(lp2718
I0
aI43
aI0
aI0
aaaI6
aa(lp2719
(lp2720
(lp2721
I16
aI40
aI0
aI27
aa(lp2722
I0
aI57
aI0
aI2
aa(lp2723
I0
aI0
aI21
aI0
aa(lp2724
I0
aI57
aI12
aI57
aaaI2
aa(lp2725
(lp2726
(lp2727
I3
aI39
aI0
aI33
aa(lp2728
I0
aI57
aI0
aI28
aa(lp2729
I0
aI0
aI29
aI0
aa(lp2730
I42
aI57
aI1
aI57
aaaI1
aa(lp2731
(lp2732
(lp2733
I0
aI23
aI7
aI16
aa(lp2734
I0
aI57
aI24
aI43
aa(lp2735
I0
aI46
aI26
aI0
aa(lp2736
I47
aI57
aI50
aI57
aaaI6
aa(lp2737
(lp2738
(lp2739
I7
aI0
aI5
aI3
aa(lp2740
I13
aI14
aI40
aI14
aa(lp2741
I0
aI0
aI38
aI0
aa(lp2742
I1
aI0
aI0
aI0
aaaI2
aa(lp2743
(lp2744
(lp2745
I0
aI41
aI0
aI3
aa(lp2746
I0
aI27
aI11
aI57
aa(lp2747
I57
aI0
aI31
aI0
aa(lp2748
I6
aI42
aI57
aI43
aaaI6
aa(lp2749
(lp2750
(lp2751
I5
aI16
aI57
aI36
aa(lp2752
I0
aI8
aI0
aI0
aa(lp2753
I0
aI0
aI0
aI37
aa(lp2754
I0
aI0
aI42
aI57
aaaI2
aa(lp2755
(lp2756
(lp2757
I9
aI29
aI32
aI0
aa(lp2758
I0
aI0
aI22
aI57
aa(lp2759
I57
aI0
aI27
aI36
aa(lp2760
I5
aI46
aI0
aI45
aaaI3
aa(lp2761
(lp2762
(lp2763
I27
aI57
aI7
aI31
aa(lp2764
I20
aI0
aI57
aI0
aa(lp2765
I57
aI57
aI0
aI0
aa(lp2766
I57
aI57
aI9
aI57
aaaI5
aa(lp2767
(lp2768
(lp2769
I31
aI0
aI0
aI1
aa(lp2770
I0
aI0
aI0
aI29
aa(lp2771
I0
aI42
aI0
aI0
aa(lp2772
I0
aI0
aI0
aI1
aaaI6
aa(lp2773
(lp2774
(lp2775
I7
aI31
aI1
aI0
aa(lp2776
I0
aI0
aI14
aI0
aa(lp2777
I57
aI49
aI0
aI57
aa(lp2778
I0
aI0
aI0
aI0
aaaI1
aa(lp2779
(lp2780
(lp2781
I44
aI57
aI7
aI23
aa(lp2782
I0
aI0
aI0
aI0
aa(lp2783
I0
aI13
aI0
aI18
aa(lp2784
I14
aI0
aI42
aI0
aaaI2
aa(lp2785
(lp2786
(lp2787
I38
aI57
aI26
aI32
aa(lp2788
I0
aI14
aI57
aI57
aa(lp2789
I0
aI0
aI1
aI39
aa(lp2790
I0
aI47
aI2
aI57
aaaI1
aa(lp2791
(lp2792
(lp2793
I42
aI57
aI1
aI21
aa(lp2794
I0
aI30
aI57
aI57
aa(lp2795
I0
aI17
aI0
aI0
aa(lp2796
I39
aI0
aI21
aI57
aaaI2
aa(lp2797
(lp2798
(lp2799
I0
aI57
aI0
aI26
aa(lp2800
I0
aI0
aI57
aI57
aa(lp2801
I28
aI31
aI0
aI0
aa(lp2802
I0
aI6
aI0
aI57
aaaI6
aa(lp2803
(lp2804
(lp2805
I57
aI0
aI0
aI3
aa(lp2806
I57
aI0
aI57
aI0
aa(lp2807
I20
aI35
aI38
aI11
aa(lp2808
I40
aI57
aI10
aI47
aaaI6
aa(lp2809
(lp2810
(lp2811
I57
aI5
aI26
aI0
aa(lp2812
I57
aI57
aI57
aI50
aa(lp2813
I38
aI31
aI28
aI57
aa(lp2814
I45
aI57
aI57
aI57
aaaI6
aa(lp2815
(lp2816
(lp2817
I57
aI17
aI0
aI34
aa(lp2818
I41
aI0
aI19
aI0
aa(lp2819
I4
aI0
aI57
aI50
aa(lp2820
I0
aI36
aI8
aI0
aaaI6
aa(lp2821
(lp2822
(lp2823
I0
aI0
aI23
aI5
aa(lp2824
I0
aI0
aI0
aI0
aa(lp2825
I10
aI0
aI19
aI57
aa(lp2826
I50
aI57
aI39
aI57
aaaI6
aa(lp2827
(lp2828
(lp2829
I0
aI0
aI0
aI0
aa(lp2830
I0
aI13
aI38
aI0
aa(lp2831
I27
aI0
aI6
aI26
aa(lp2832
I0
aI0
aI0
aI11
aaaI6
aa(lp2833
(lp2834
(lp2835
I30
aI22
aI32
aI17
aa(lp2836
I26
aI0
aI0
aI0
aa(lp2837
I49
aI28
aI0
aI0
aa(lp2838
I39
aI51
aI39
aI0
aaaI3
aa(lp2839
(lp2840
(lp2841
I1
aI1
aI4
aI0
aa(lp2842
I0
aI0
aI35
aI57
aa(lp2843
I50
aI0
aI0
aI42
aa(lp2844
I43
aI31
aI0
aI57
aaaI2
aa(lp2845
(lp2846
(lp2847
I15
aI0
aI7
aI1
aa(lp2848
I0
aI0
aI39
aI0
aa(lp2849
I0
aI48
aI38
aI50
aa(lp2850
I0
aI0
aI0
aI43
aaaI5
aa(lp2851
(lp2852
(lp2853
I17
aI1
aI57
aI0
aa(lp2854
I0
aI0
aI30
aI0
aa(lp2855
I35
aI0
aI0
aI34
aa(lp2856
I39
aI0
aI57
aI26
aaaI6
aa(lp2857
(lp2858
(lp2859
I0
aI14
aI51
aI0
aa(lp2860
I0
aI57
aI0
aI11
aa(lp2861
I0
aI0
aI0
aI2
aa(lp2862
I25
aI57
aI0
aI31
aaaI6
aa(lp2863
(lp2864
(lp2865
I0
aI0
aI29
aI17
aa(lp2866
I57
aI49
aI0
aI0
aa(lp2867
I2
aI39
aI0
aI0
aa(lp2868
I45
aI0
aI11
aI47
aaaI6
aa(lp2869
(lp2870
(lp2871
I0
aI26
aI0
aI0
aa(lp2872
I49
aI57
aI0
aI57
aa(lp2873
I57
aI29
aI0
aI57
aa(lp2874
I57
aI17
aI57
aI57
aaaI6
aa(lp2875
(lp2876
(lp2877
I0
aI15
aI3
aI0
aa(lp2878
I0
aI0
aI0
aI0
aa(lp2879
I0
aI0
aI33
aI20
aa(lp2880
I41
aI44
aI0
aI0
aaaI6
aa(lp2881
(lp2882
(lp2883
I0
aI0
aI23
aI0
aa(lp2884
I0
aI38
aI0
aI57
aa(lp2885
I33
aI0
aI57
aI57
aa(lp2886
I13
aI0
aI57
aI15
aaaI6
aa(lp2887
(lp2888
(lp2889
I24
aI0
aI0
aI57
aa(lp2890
I42
aI13
aI57
aI0
aa(lp2891
I0
aI57
aI34
aI0
aa(lp2892
I0
aI0
aI0
aI0
aaaI6
aa(lp2893
(lp2894
(lp2895
I1
aI0
aI31
aI14
aa(lp2896
I0
aI44
aI22
aI0
aa(lp2897
I0
aI57
aI27
aI32
aa(lp2898
I0
aI24
aI5
aI3
aaaI6
aa(lp2899
(lp2900
(lp2901
I25
aI19
aI0
aI5
aa(lp2902
I30
aI57
aI0
aI16
aa(lp2903
I38
aI57
aI38
aI0
aa(lp2904
I0
aI0
aI0
aI3
aaaI6
aa(lp2905
(lp2906
(lp2907
I9
aI12
aI15
aI0
aa(lp2908
I6
aI57
aI39
aI57
aa(lp2909
I35
aI57
aI0
aI0
aa(lp2910
I46
aI39
aI0
aI0
aaaI3
aa(lp2911
(lp2912
(lp2913
I11
aI57
aI10
aI7
aa(lp2914
I0
aI57
aI18
aI57
aa(lp2915
I31
aI57
aI57
aI25
aa(lp2916
I0
aI0
aI25
aI4
aaaI4
aa(lp2917
(lp2918
(lp2919
I48
aI0
aI23
aI23
aa(lp2920
I31
aI57
aI0
aI29
aa(lp2921
I0
aI43
aI0
aI57
aa(lp2922
I57
aI0
aI57
aI57
aaaI4
aa(lp2923
(lp2924
(lp2925
I0
aI42
aI0
aI37
aa(lp2926
I0
aI0
aI14
aI11
aa(lp2927
I27
aI0
aI27
aI34
aa(lp2928
I0
aI0
aI39
aI42
aaaI6
aa(lp2929
(lp2930
(lp2931
I13
aI57
aI1
aI10
aa(lp2932
I37
aI0
aI0
aI18
aa(lp2933
I57
aI0
aI30
aI57
aa(lp2934
I0
aI0
aI1
aI0
aaaI6
aa(lp2935
(lp2936
(lp2937
I1
aI0
aI18
aI18
aa(lp2938
I0
aI0
aI0
aI0
aa(lp2939
I0
aI28
aI30
aI27
aa(lp2940
I0
aI46
aI43
aI51
aaaI4
aa(lp2941
(lp2942
(lp2943
I1
aI17
aI0
aI1
aa(lp2944
I0
aI0
aI39
aI0
aa(lp2945
I31
aI29
aI57
aI0
aa(lp2946
I51
aI45
aI57
aI0
aaaI5
aa(lp2947
(lp2948
(lp2949
I0
aI0
aI0
aI28
aa(lp2950
I35
aI57
aI0
aI0
aa(lp2951
I0
aI42
aI17
aI0
aa(lp2952
I0
aI0
aI39
aI15
aaaI6
aa(lp2953
(lp2954
(lp2955
I16
aI1
aI3
aI0
aa(lp2956
I0
aI21
aI11
aI0
aa(lp2957
I47
aI0
aI27
aI0
aa(lp2958
I0
aI39
aI49
aI43
aaaI1
aa(lp2959
(lp2960
(lp2961
I8
aI0
aI21
aI49
aa(lp2962
I14
aI57
aI36
aI0
aa(lp2963
I0
aI38
aI0
aI0
aa(lp2964
I0
aI0
aI15
aI0
aaaI1
aa(lp2965
(lp2966
(lp2967
I57
aI1
aI10
aI30
aa(lp2968
I47
aI57
aI0
aI14
aa(lp2969
I0
aI7
aI35
aI31
aa(lp2970
I25
aI0
aI0
aI0
aaaI3
aa(lp2971
(lp2972
(lp2973
I3
aI1
aI23
aI0
aa(lp2974
I28
aI0
aI42
aI0
aa(lp2975
I0
aI10
aI33
aI0
aa(lp2976
I0
aI39
aI57
aI0
aaaI1
aa(lp2977
(lp2978
(lp2979
I0
aI16
aI0
aI47
aa(lp2980
I0
aI0
aI0
aI29
aa(lp2981
I0
aI0
aI57
aI0
aa(lp2982
I0
aI0
aI0
aI13
aaaI6
aa(lp2983
(lp2984
(lp2985
I0
aI0
aI0
aI0
aa(lp2986
I2
aI57
aI14
aI0
aa(lp2987
I0
aI27
aI57
aI3
aa(lp2988
I0
aI0
aI57
aI0
aaaI6
aa(lp2989
(lp2990
(lp2991
I28
aI0
aI18
aI4
aa(lp2992
I15
aI0
aI21
aI0
aa(lp2993
I1
aI0
aI41
aI0
aa(lp2994
I0
aI39
aI5
aI45
aaaI2
aa(lp2995
(lp2996
(lp2997
I0
aI0
aI0
aI0
aa(lp2998
I36
aI57
aI26
aI45
aa(lp2999
I5
aI0
aI0
aI30
aa(lp3000
I0
aI5
aI12
aI0
aaaI6
aa(lp3001
(lp3002
(lp3003
I29
aI0
aI18
aI28
aa(lp3004
I0
aI57
aI18
aI0
aa(lp3005
I9
aI0
aI0
aI0
aa(lp3006
I22
aI0
aI18
aI0
aaaI6
aa(lp3007
(lp3008
(lp3009
I1
aI14
aI30
aI0
aa(lp3010
I0
aI1
aI57
aI57
aa(lp3011
I57
aI29
aI0
aI24
aa(lp3012
I0
aI16
aI57
aI36
aaaI6
aa(lp3013
(lp3014
(lp3015
I19
aI0
aI4
aI4
aa(lp3016
I14
aI0
aI39
aI57
aa(lp3017
I57
aI0
aI0
aI25
aa(lp3018
I57
aI0
aI0
aI46
aaaI1
aa(lp3019
(lp3020
(lp3021
I0
aI0
aI0
aI20
aa(lp3022
I18
aI3
aI29
aI14
aa(lp3023
I4
aI27
aI57
aI16
aa(lp3024
I6
aI0
aI0
aI57
aaaI6
aa(lp3025
(lp3026
(lp3027
I0
aI0
aI22
aI0
aa(lp3028
I0
aI0
aI31
aI14
aa(lp3029
I0
aI0
aI47
aI0
aa(lp3030
I0
aI0
aI50
aI0
aaaI6
aa(lp3031
(lp3032
(lp3033
I0
aI57
aI0
aI2
aa(lp3034
I23
aI0
aI57
aI0
aa(lp3035
I41
aI27
aI27
aI48
aa(lp3036
I0
aI0
aI0
aI34
aaaI6
aa(lp3037
(lp3038
(lp3039
I16
aI57
aI38
aI20
aa(lp3040
I0
aI57
aI57
aI0
aa(lp3041
I27
aI0
aI57
aI51
aa(lp3042
I57
aI18
aI57
aI10
aaaI5
aa(lp3043
(lp3044
(lp3045
I0
aI0
aI52
aI30
aa(lp3046
I14
aI0
aI47
aI9
aa(lp3047
I43
aI29
aI0
aI44
aa(lp3048
I43
aI57
aI57
aI0
aaaI6
aa(lp3049
(lp3050
(lp3051
I9
aI0
aI8
aI10
aa(lp3052
I20
aI14
aI43
aI19
aa(lp3053
I0
aI0
aI57
aI5
aa(lp3054
I0
aI57
aI57
aI39
aaaI3
aa(lp3055
(lp3056
(lp3057
I12
aI11
aI0
aI1
aa(lp3058
I0
aI6
aI57
aI0
aa(lp3059
I47
aI40
aI57
aI57
aa(lp3060
I57
aI21
aI57
aI57
aaaI1
aa(lp3061
(lp3062
(lp3063
I0
aI19
aI3
aI15
aa(lp3064
I57
aI0
aI0
aI0
aa(lp3065
I57
aI28
aI57
aI57
aa(lp3066
I22
aI57
aI39
aI35
aaaI1
aa(lp3067
(lp3068
(lp3069
I0
aI0
aI50
aI25
aa(lp3070
I57
aI31
aI0
aI0
aa(lp3071
I57
aI42
aI57
aI57
aa(lp3072
I49
aI57
aI39
aI57
aaaI6
aa(lp3073
(lp3074
(lp3075
I13
aI1
aI0
aI37
aa(lp3076
I0
aI0
aI43
aI0
aa(lp3077
I0
aI0
aI0
aI35
aa(lp3078
I5
aI0
aI0
aI0
aaaI1
aa(lp3079
(lp3080
(lp3081
I0
aI0
aI0
aI0
aa(lp3082
I14
aI15
aI33
aI0
aa(lp3083
I0
aI10
aI0
aI0
aa(lp3084
I7
aI33
aI0
aI46
aaaI6
aa(lp3085
(lp3086
(lp3087
I13
aI29
aI2
aI7
aa(lp3088
I14
aI7
aI14
aI57
aa(lp3089
I27
aI38
aI0
aI0
aa(lp3090
I57
aI50
aI57
aI57
aaaI3
aa(lp3091
(lp3092
(lp3093
I57
aI1
aI18
aI0
aa(lp3094
I57
aI0
aI57
aI7
aa(lp3095
I29
aI43
aI46
aI0
aa(lp3096
I57
aI21
aI10
aI57
aaaI6
aa(lp3097
(lp3098
(lp3099
I0
aI0
aI0
aI0
aa(lp3100
I0
aI38
aI0
aI0
aa(lp3101
I0
aI38
aI27
aI41
aa(lp3102
I0
aI13
aI47
aI1
aaaI6
aa(lp3103
(lp3104
(lp3105
I8
aI0
aI8
aI29
aa(lp3106
I0
aI2
aI0
aI15
aa(lp3107
I0
aI0
aI0
aI57
aa(lp3108
I47
aI0
aI0
aI0
aaaI4
aa(lp3109
(lp3110
(lp3111
I22
aI36
aI3
aI0
aa(lp3112
I0
aI14
aI0
aI0
aa(lp3113
I49
aI57
aI0
aI57
aa(lp3114
I0
aI4
aI0
aI0
aaaI4
aa(lp3115
(lp3116
(lp3117
I0
aI57
aI11
aI0
aa(lp3118
I0
aI0
aI38
aI0
aa(lp3119
I57
aI31
aI1
aI57
aa(lp3120
I20
aI0
aI50
aI42
aaaI6
aa(lp3121
(lp3122
(lp3123
I0
aI57
aI18
aI12
aa(lp3124
I50
aI0
aI32
aI0
aa(lp3125
I57
aI38
aI57
aI57
aa(lp3126
I57
aI8
aI51
aI0
aaaI6
aa(lp3127
(lp3128
(lp3129
I6
aI2
aI19
aI1
aa(lp3130
I22
aI57
aI16
aI15
aa(lp3131
I0
aI45
aI0
aI57
aa(lp3132
I0
aI47
aI0
aI0
aaaI5
aa(lp3133
(lp3134
(lp3135
I0
aI0
aI34
aI0
aa(lp3136
I0
aI57
aI0
aI14
aa(lp3137
I51
aI10
aI28
aI57
aa(lp3138
I0
aI15
aI10
aI0
aaaI6
aa(lp3139
(lp3140
(lp3141
I7
aI7
aI0
aI19
aa(lp3142
I18
aI0
aI34
aI6
aa(lp3143
I0
aI0
aI0
aI0
aa(lp3144
I0
aI39
aI39
aI32
aaaI6
aa(lp3145
(lp3146
(lp3147
I0
aI32
aI15
aI45
aa(lp3148
I0
aI44
aI23
aI26
aa(lp3149
I49
aI0
aI27
aI34
aa(lp3150
I0
aI0
aI28
aI24
aaaI3
aa(lp3151
(lp3152
(lp3153
I31
aI0
aI31
aI5
aa(lp3154
I18
aI57
aI20
aI0
aa(lp3155
I0
aI26
aI0
aI0
aa(lp3156
I0
aI45
aI40
aI0
aaaI2
aa(lp3157
(lp3158
(lp3159
I1
aI0
aI12
aI25
aa(lp3160
I0
aI27
aI30
aI0
aa(lp3161
I0
aI0
aI0
aI27
aa(lp3162
I40
aI0
aI0
aI15
aaaI3
aa(lp3163
(lp3164
(lp3165
I9
aI0
aI13
aI28
aa(lp3166
I0
aI31
aI40
aI0
aa(lp3167
I0
aI0
aI0
aI40
aa(lp3168
I46
aI0
aI0
aI19
aaaI6
aa(lp3169
(lp3170
(lp3171
I0
aI0
aI0
aI0
aa(lp3172
I0
aI57
aI0
aI26
aa(lp3173
I29
aI57
aI34
aI33
aa(lp3174
I57
aI18
aI0
aI23
aaaI6
aa(lp3175
(lp3176
(lp3177
I23
aI27
aI22
aI0
aa(lp3178
I0
aI0
aI15
aI41
aa(lp3179
I21
aI0
aI0
aI0
aa(lp3180
I50
aI0
aI0
aI50
aaaI2
aa(lp3181
(lp3182
(lp3183
I0
aI0
aI57
aI0
aa(lp3184
I18
aI20
aI24
aI14
aa(lp3185
I50
aI0
aI0
aI48
aa(lp3186
I0
aI21
aI0
aI39
aaaI6
aa(lp3187
(lp3188
(lp3189
I1
aI7
aI40
aI57
aa(lp3190
I36
aI0
aI57
aI0
aa(lp3191
I0
aI0
aI57
aI0
aa(lp3192
I9
aI51
aI57
aI0
aaaI3
aa(lp3193
(lp3194
(lp3195
I15
aI24
aI25
aI57
aa(lp3196
I0
aI14
aI57
aI1
aa(lp3197
I16
aI11
aI57
aI0
aa(lp3198
I12
aI0
aI57
aI0
aaaI4
aa(lp3199
(lp3200
(lp3201
I45
aI45
aI2
aI57
aa(lp3202
I0
aI28
aI57
aI37
aa(lp3203
I57
aI0
aI57
aI57
aa(lp3204
I57
aI43
aI57
aI9
aaaI1
aa(lp3205
(lp3206
(lp3207
I9
aI2
aI0
aI38
aa(lp3208
I57
aI57
aI57
aI0
aa(lp3209
I42
aI41
aI57
aI57
aa(lp3210
I31
aI0
aI42
aI0
aaaI3
aa(lp3211
(lp3212
(lp3213
I0
aI0
aI0
aI0
aa(lp3214
I57
aI57
aI57
aI9
aa(lp3215
I57
aI42
aI57
aI57
aa(lp3216
I39
aI19
aI0
aI0
aaaI6
aa(lp3217
(lp3218
(lp3219
I0
aI0
aI0
aI0
aa(lp3220
I31
aI0
aI0
aI42
aa(lp3221
I0
aI29
aI27
aI26
aa(lp3222
I0
aI0
aI0
aI16
aaaI6
aa(lp3223
(lp3224
(lp3225
I0
aI57
aI4
aI39
aa(lp3226
I0
aI57
aI57
aI51
aa(lp3227
I57
aI57
aI15
aI57
aa(lp3228
I1
aI57
aI57
aI57
aaaI6
aa(lp3229
(lp3230
(lp3231
I1
aI0
aI2
aI0
aa(lp3232
I57
aI21
aI0
aI57
aa(lp3233
I35
aI18
aI33
aI57
aa(lp3234
I41
aI0
aI39
aI57
aaaI6
aa(lp3235
(lp3236
(lp3237
I39
aI39
aI0
aI22
aa(lp3238
I57
aI11
aI14
aI57
aa(lp3239
I33
aI38
aI33
aI57
aa(lp3240
I39
aI0
aI48
aI57
aaaI1
aa(lp3241
(lp3242
(lp3243
I29
aI29
aI26
aI0
aa(lp3244
I50
aI48
aI0
aI0
aa(lp3245
I0
aI0
aI31
aI0
aa(lp3246
I0
aI15
aI0
aI0
aaaI3
aa(lp3247
(lp3248
(lp3249
I10
aI0
aI34
aI1
aa(lp3250
I14
aI25
aI0
aI57
aa(lp3251
I0
aI24
aI46
aI0
aa(lp3252
I0
aI21
aI0
aI40
aaaI1
aa(lp3253
(lp3254
(lp3255
I12
aI0
aI25
aI29
aa(lp3256
I0
aI0
aI0
aI0
aa(lp3257
I27
aI0
aI5
aI57
aa(lp3258
I7
aI2
aI12
aI0
aaaI1
aa(lp3259
(lp3260
(lp3261
I23
aI0
aI0
aI57
aa(lp3262
I0
aI48
aI0
aI57
aa(lp3263
I57
aI57
aI27
aI57
aa(lp3264
I0
aI57
aI39
aI0
aaaI6
aa(lp3265
(lp3266
(lp3267
I7
aI25
aI1
aI47
aa(lp3268
I14
aI14
aI14
aI57
aa(lp3269
I39
aI57
aI57
aI57
aa(lp3270
I57
aI57
aI31
aI0
aaaI4
aa(lp3271
(lp3272
(lp3273
I0
aI1
aI44
aI1
aa(lp3274
I0
aI0
aI0
aI57
aa(lp3275
I20
aI57
aI57
aI57
aa(lp3276
I57
aI57
aI57
aI47
aaaI2
aa(lp3277
(lp3278
(lp3279
I3
aI14
aI0
aI6
aa(lp3280
I0
aI20
aI0
aI0
aa(lp3281
I57
aI0
aI57
aI33
aa(lp3282
I39
aI0
aI57
aI0
aaaI1
aa(lp3283
(lp3284
(lp3285
I11
aI8
aI0
aI0
aa(lp3286
I57
aI0
aI32
aI46
aa(lp3287
I0
aI0
aI57
aI15
aa(lp3288
I34
aI0
aI0
aI57
aaaI6
aa(lp3289
(lp3290
(lp3291
I27
aI1
aI0
aI4
aa(lp3292
I57
aI24
aI33
aI57
aa(lp3293
I18
aI0
aI57
aI47
aa(lp3294
I42
aI0
aI0
aI57
aaaI5
aa(lp3295
(lp3296
(lp3297
I16
aI0
aI47
aI19
aa(lp3298
I57
aI38
aI44
aI57
aa(lp3299
I0
aI27
aI57
aI15
aa(lp3300
I57
aI0
aI14
aI57
aaaI5
aa(lp3301
(lp3302
(lp3303
I0
aI0
aI27
aI0
aa(lp3304
I0
aI0
aI0
aI4
aa(lp3305
I0
aI0
aI0
aI17
aa(lp3306
I0
aI20
aI39
aI0
aaaI6
aa(lp3307
(lp3308
(lp3309
I0
aI0
aI0
aI0
aa(lp3310
I0
aI0
aI25
aI0
aa(lp3311
I0
aI0
aI0
aI57
aa(lp3312
I2
aI7
aI0
aI0
aaaI6
aa(lp3313
(lp3314
(lp3315
I17
aI11
aI0
aI22
aa(lp3316
I49
aI57
aI57
aI21
aa(lp3317
I57
aI36
aI38
aI57
aa(lp3318
I4
aI39
aI57
aI0
aaaI3
aa(lp3319
(lp3320
(lp3321
I0
aI30
aI1
aI3
aa(lp3322
I0
aI0
aI14
aI8
aa(lp3323
I0
aI57
aI57
aI41
aa(lp3324
I57
aI57
aI57
aI46
aaaI3
aa(lp3325
(lp3326
(lp3327
I1
aI35
aI34
aI8
aa(lp3328
I24
aI25
aI23
aI17
aa(lp3329
I0
aI57
aI57
aI19
aa(lp3330
I57
aI57
aI57
aI48
aaaI5
aa(lp3331
(lp3332
(lp3333
I28
aI3
aI0
aI7
aa(lp3334
I24
aI0
aI21
aI0
aa(lp3335
I0
aI57
aI57
aI29
aa(lp3336
I57
aI57
aI57
aI0
aaaI3
aa(lp3337
(lp3338
(lp3339
I43
aI3
aI1
aI0
aa(lp3340
I26
aI0
aI35
aI22
aa(lp3341
I0
aI26
aI0
aI0
aa(lp3342
I10
aI0
aI0
aI0
aaaI1
aa(lp3343
(lp3344
(lp3345
I0
aI0
aI0
aI0
aa(lp3346
I0
aI0
aI0
aI0
aa(lp3347
I0
aI0
aI0
aI0
aa(lp3348
I0
aI39
aI0
aI0
aaaI6
aa(lp3349
(lp3350
(lp3351
I1
aI4
aI47
aI0
aa(lp3352
I0
aI25
aI0
aI24
aa(lp3353
I0
aI0
aI0
aI0
aa(lp3354
I39
aI0
aI42
aI0
aaaI6
aa(lp3355
(lp3356
(lp3357
I0
aI16
aI0
aI0
aa(lp3358
I6
aI41
aI0
aI0
aa(lp3359
I46
aI35
aI30
aI25
aa(lp3360
I0
aI0
aI0
aI3
aaaI6
aa(lp3361
(lp3362
(lp3363
I57
aI12
aI7
aI28
aa(lp3364
I28
aI22
aI0
aI32
aa(lp3365
I0
aI0
aI0
aI0
aa(lp3366
I15
aI50
aI41
aI38
aaaI2
aa(lp3367
(lp3368
(lp3369
I57
aI40
aI19
aI3
aa(lp3370
I25
aI0
aI0
aI0
aa(lp3371
I0
aI0
aI0
aI0
aa(lp3372
I5
aI21
aI0
aI14
aaaI5
aa(lp3373
(lp3374
(lp3375
I32
aI39
aI38
aI57
aa(lp3376
I0
aI48
aI2
aI0
aa(lp3377
I27
aI0
aI43
aI7
aa(lp3378
I0
aI0
aI39
aI37
aaaI6
aa(lp3379
(lp3380
(lp3381
I19
aI30
aI1
aI0
aa(lp3382
I44
aI0
aI0
aI57
aa(lp3383
I11
aI0
aI51
aI27
aa(lp3384
I0
aI39
aI0
aI0
aaaI1
aa(lp3385
(lp3386
(lp3387
I1
aI50
aI4
aI0
aa(lp3388
I0
aI0
aI0
aI0
aa(lp3389
I27
aI33
aI0
aI22
aa(lp3390
I30
aI5
aI0
aI41
aaaI1
aa(lp3391
(lp3392
(lp3393
I5
aI57
aI1
aI0
aa(lp3394
I0
aI57
aI57
aI44
aa(lp3395
I36
aI45
aI0
aI0
aa(lp3396
I0
aI5
aI0
aI14
aaaI6
aa(lp3397
(lp3398
(lp3399
I8
aI57
aI21
aI8
aa(lp3400
I11
aI57
aI57
aI14
aa(lp3401
I41
aI7
aI0
aI0
aa(lp3402
I0
aI0
aI51
aI0
aaaI1
aa(lp3403
(lp3404
(lp3405
I7
aI0
aI34
aI8
aa(lp3406
I0
aI3
aI14
aI18
aa(lp3407
I41
aI0
aI0
aI0
aa(lp3408
I0
aI50
aI50
aI0
aaaI2
aa(lp3409
(lp3410
(lp3411
I0
aI18
aI0
aI57
aa(lp3412
I0
aI27
aI51
aI13
aa(lp3413
I42
aI0
aI8
aI0
aa(lp3414
I0
aI37
aI0
aI48
aaaI6
aa(lp3415
(lp3416
(lp3417
I14
aI57
aI5
aI1
aa(lp3418
I0
aI0
aI0
aI24
aa(lp3419
I49
aI57
aI0
aI27
aa(lp3420
I57
aI39
aI1
aI42
aaaI3
aa(lp3421
(lp3422
(lp3423
I15
aI57
aI25
aI8
aa(lp3424
I0
aI41
aI0
aI0
aa(lp3425
I30
aI57
aI0
aI0
aa(lp3426
I57
aI42
aI0
aI43
aaaI6
aa(lp3427
(lp3428
(lp3429
I0
aI0
aI0
aI15
aa(lp3430
I14
aI0
aI16
aI48
aa(lp3431
I3
aI0
aI29
aI8
aa(lp3432
I0
aI45
aI0
aI0
aaaI6
aa(lp3433
(lp3434
(lp3435
I32
aI1
aI0
aI41
aa(lp3436
I15
aI0
aI0
aI6
aa(lp3437
I2
aI27
aI57
aI13
aa(lp3438
I0
aI17
aI0
aI0
aaaI6
aa(lp3439
(lp3440
(lp3441
I0
aI40
aI35
aI0
aa(lp3442
I0
aI43
aI15
aI0
aa(lp3443
I30
aI0
aI0
aI0
aa(lp3444
I0
aI57
aI0
aI0
aaaI6
aa(lp3445
(lp3446
(lp3447
I7
aI0
aI8
aI33
aa(lp3448
I16
aI0
aI37
aI20
aa(lp3449
I43
aI0
aI0
aI34
aa(lp3450
I51
aI3
aI0
aI0
aaaI1
aa(lp3451
(lp3452
(lp3453
I24
aI7
aI29
aI38
aa(lp3454
I14
aI0
aI14
aI16
aa(lp3455
I27
aI0
aI0
aI2
aa(lp3456
I0
aI50
aI57
aI41
aaaI2
aa(lp3457
(lp3458
(lp3459
I7
aI0
aI0
aI57
aa(lp3460
I0
aI0
aI16
aI14
aa(lp3461
I0
aI0
aI30
aI47
aa(lp3462
I47
aI33
aI0
aI10
aaaI6
aa(lp3463
(lp3464
(lp3465
I0
aI0
aI0
aI0
aa(lp3466
I15
aI0
aI0
aI0
aa(lp3467
I0
aI38
aI0
aI0
aa(lp3468
I0
aI0
aI40
aI39
aaaI6
aa(lp3469
(lp3470
(lp3471
I1
aI0
aI4
aI45
aa(lp3472
I39
aI0
aI57
aI0
aa(lp3473
I6
aI0
aI0
aI6
aa(lp3474
I46
aI0
aI31
aI0
aaaI3
aa(lp3475
(lp3476
(lp3477
I9
aI0
aI0
aI43
aa(lp3478
I0
aI23
aI57
aI43
aa(lp3479
I0
aI27
aI0
aI57
aa(lp3480
I18
aI0
aI0
aI57
aaaI6
aa(lp3481
(lp3482
(lp3483
I0
aI0
aI45
aI20
aa(lp3484
I23
aI57
aI57
aI15
aa(lp3485
I0
aI44
aI1
aI57
aa(lp3486
I0
aI15
aI0
aI57
aaaI6
aa(lp3487
(lp3488
(lp3489
I0
aI8
aI45
aI29
aa(lp3490
I13
aI57
aI57
aI47
aa(lp3491
I0
aI0
aI39
aI57
aa(lp3492
I0
aI39
aI0
aI57
aaaI6
aa(lp3493
(lp3494
(lp3495
I38
aI38
aI23
aI3
aa(lp3496
I0
aI17
aI57
aI43
aa(lp3497
I18
aI26
aI57
aI0
aa(lp3498
I1
aI57
aI18
aI14
aaaI5
aa(lp3499
(lp3500
(lp3501
I0
aI34
aI29
aI39
aa(lp3502
I47
aI0
aI57
aI0
aa(lp3503
I0
aI57
aI57
aI17
aa(lp3504
I0
aI57
aI0
aI38
aaaI5
aa(lp3505
(lp3506
(lp3507
I49
aI57
aI1
aI42
aa(lp3508
I8
aI15
aI24
aI57
aa(lp3509
I57
aI34
aI36
aI0
aa(lp3510
I0
aI0
aI29
aI39
aaaI1
aa(lp3511
(lp3512
(lp3513
I31
aI57
aI28
aI8
aa(lp3514
I0
aI9
aI0
aI57
aa(lp3515
I57
aI0
aI0
aI41
aa(lp3516
I0
aI0
aI24
aI0
aaaI2
aa(lp3517
(lp3518
(lp3519
I13
aI0
aI17
aI28
aa(lp3520
I0
aI0
aI0
aI32
aa(lp3521
I51
aI0
aI0
aI0
aa(lp3522
I41
aI0
aI0
aI8
aaaI5
aa(lp3523
(lp3524
(lp3525
I26
aI0
aI10
aI25
aa(lp3526
I0
aI38
aI39
aI0
aa(lp3527
I0
aI7
aI0
aI46
aa(lp3528
I0
aI0
aI39
aI1
aaaI4
aa(lp3529
(lp3530
(lp3531
I25
aI0
aI0
aI7
aa(lp3532
I30
aI16
aI0
aI25
aa(lp3533
I41
aI0
aI49
aI0
aa(lp3534
I48
aI0
aI0
aI0
aaaI6
aa(lp3535
(lp3536
(lp3537
I57
aI35
aI0
aI0
aa(lp3538
I0
aI0
aI0
aI37
aa(lp3539
I0
aI57
aI0
aI30
aa(lp3540
I50
aI41
aI22
aI0
aaaI6
aa(lp3541
(lp3542
(lp3543
I57
aI1
aI53
aI5
aa(lp3544
I0
aI0
aI57
aI0
aa(lp3545
I21
aI57
aI48
aI0
aa(lp3546
I0
aI18
aI41
aI0
aaaI5
aa(lp3547
(lp3548
(lp3549
I7
aI0
aI1
aI12
aa(lp3550
I0
aI51
aI24
aI5
aa(lp3551
I0
aI49
aI0
aI39
aa(lp3552
I0
aI22
aI39
aI32
aaaI3
aa(lp3553
(lp3554
(lp3555
I36
aI0
aI9
aI31
aa(lp3556
I0
aI29
aI40
aI0
aa(lp3557
I0
aI0
aI0
aI22
aa(lp3558
I51
aI50
aI0
aI45
aaaI6
aa(lp3559
(lp3560
(lp3561
I23
aI11
aI35
aI0
aa(lp3562
I26
aI14
aI0
aI0
aa(lp3563
I51
aI49
aI0
aI33
aa(lp3564
I0
aI0
aI50
aI0
aaaI6
aa(lp3565
(lp3566
(lp3567
I9
aI0
aI15
aI8
aa(lp3568
I18
aI0
aI0
aI0
aa(lp3569
I0
aI5
aI35
aI57
aa(lp3570
I15
aI0
aI0
aI0
aaaI4
aa(lp3571
(lp3572
(lp3573
I28
aI18
aI0
aI3
aa(lp3574
I0
aI0
aI0
aI40
aa(lp3575
I0
aI0
aI0
aI25
aa(lp3576
I0
aI42
aI0
aI0
aaaI3
aa(lp3577
(lp3578
(lp3579
I0
aI0
aI0
aI0
aa(lp3580
I0
aI0
aI45
aI20
aa(lp3581
I34
aI0
aI0
aI24
aa(lp3582
I39
aI8
aI39
aI39
aaaI6
aa(lp3583
(lp3584
(lp3585
I40
aI2
aI0
aI1
aa(lp3586
I17
aI0
aI0
aI8
aa(lp3587
I18
aI0
aI0
aI0
aa(lp3588
I0
aI30
aI47
aI27
aaaI6
aa(lp3589
(lp3590
(lp3591
I1
aI2
aI1
aI7
aa(lp3592
I39
aI14
aI0
aI8
aa(lp3593
I31
aI0
aI0
aI0
aa(lp3594
I0
aI38
aI0
aI0
aaaI1
aa(lp3595
(lp3596
(lp3597
I38
aI1
aI0
aI0
aa(lp3598
I17
aI57
aI0
aI0
aa(lp3599
I0
aI35
aI0
aI0
aa(lp3600
I57
aI0
aI0
aI0
aaaI6
aa(lp3601
(lp3602
(lp3603
I25
aI13
aI25
aI3
aa(lp3604
I0
aI57
aI14
aI50
aa(lp3605
I28
aI0
aI0
aI10
aa(lp3606
I57
aI43
aI0
aI0
aaaI6
aa(lp3607
(lp3608
(lp3609
I25
aI22
aI0
aI9
aa(lp3610
I0
aI57
aI25
aI17
aa(lp3611
I49
aI0
aI35
aI11
aa(lp3612
I57
aI0
aI0
aI0
aaaI2
aa(lp3613
(lp3614
(lp3615
I0
aI0
aI0
aI0
aa(lp3616
I30
aI57
aI30
aI0
aa(lp3617
I0
aI0
aI10
aI36
aa(lp3618
I57
aI39
aI0
aI9
aaaI6
aa(lp3619
(lp3620
(lp3621
I0
aI36
aI21
aI1
aa(lp3622
I0
aI18
aI57
aI57
aa(lp3623
I2
aI35
aI34
aI57
aa(lp3624
I4
aI57
aI57
aI0
aaaI3
aa(lp3625
(lp3626
(lp3627
I30
aI0
aI1
aI4
aa(lp3628
I0
aI21
aI57
aI57
aa(lp3629
I5
aI44
aI44
aI57
aa(lp3630
I0
aI57
aI57
aI0
aaaI2
aa(lp3631
(lp3632
(lp3633
I8
aI9
aI8
aI57
aa(lp3634
I35
aI39
aI0
aI0
aa(lp3635
I26
aI0
aI27
aI51
aa(lp3636
I45
aI42
aI57
aI57
aaaI4
aa(lp3637
(lp3638
(lp3639
I12
aI0
aI3
aI1
aa(lp3640
I0
aI0
aI0
aI27
aa(lp3641
I0
aI0
aI0
aI0
aa(lp3642
I0
aI0
aI0
aI0
aaaI3
aa(lp3643
(lp3644
(lp3645
I0
aI18
aI32
aI5
aa(lp3646
I43
aI0
aI0
aI0
aa(lp3647
I27
aI7
aI0
aI57
aa(lp3648
I57
aI10
aI0
aI39
aaaI1
aa(lp3649
(lp3650
(lp3651
I1
aI0
aI4
aI17
aa(lp3652
I0
aI0
aI0
aI0
aa(lp3653
I50
aI46
aI0
aI0
aa(lp3654
I0
aI11
aI0
aI0
aaaI6
aa(lp3655
(lp3656
(lp3657
I4
aI37
aI0
aI33
aa(lp3658
I31
aI0
aI21
aI0
aa(lp3659
I0
aI0
aI0
aI18
aa(lp3660
I47
aI40
aI43
aI12
aaaI1
aa(lp3661
(lp3662
(lp3663
I16
aI6
aI28
aI0
aa(lp3664
I17
aI0
aI0
aI0
aa(lp3665
I45
aI46
aI27
aI42
aa(lp3666
I0
aI0
aI0
aI41
aaaI3
aa(lp3667
(lp3668
(lp3669
I0
aI0
aI0
aI0
aa(lp3670
I0
aI6
aI0
aI0
aa(lp3671
I31
aI0
aI27
aI13
aa(lp3672
I0
aI3
aI0
aI0
aaaI6
aa(lp3673
(lp3674
(lp3675
I13
aI0
aI57
aI0
aa(lp3676
I27
aI0
aI0
aI57
aa(lp3677
I11
aI27
aI24
aI57
aa(lp3678
I4
aI0
aI0
aI57
aaaI6
aa(lp3679
(lp3680
(lp3681
I38
aI0
aI57
aI3
aa(lp3682
I57
aI25
aI0
aI57
aa(lp3683
I57
aI0
aI14
aI57
aa(lp3684
I1
aI57
aI57
aI57
aaaI6
aa(lp3685
(lp3686
(lp3687
I52
aI0
aI0
aI17
aa(lp3688
I3
aI6
aI0
aI57
aa(lp3689
I34
aI4
aI0
aI45
aa(lp3690
I0
aI57
aI57
aI57
aaaI6
aa(lp3691
(lp3692
(lp3693
I0
aI0
aI1
aI0
aa(lp3694
I57
aI0
aI57
aI25
aa(lp3695
I0
aI0
aI57
aI43
aa(lp3696
I57
aI57
aI26
aI0
aaaI6
aa(lp3697
(lp3698
(lp3699
I5
aI7
aI0
aI0
aa(lp3700
I57
aI17
aI57
aI0
aa(lp3701
I24
aI35
aI57
aI57
aa(lp3702
I57
aI57
aI19
aI48
aaaI6
aa(lp3703
(lp3704
(lp3705
I0
aI23
aI21
aI4
aa(lp3706
I57
aI14
aI57
aI12
aa(lp3707
I0
aI18
aI57
aI57
aa(lp3708
I57
aI57
aI57
aI47
aaaI2
aa(lp3709
(lp3710
(lp3711
I57
aI5
aI41
aI2
aa(lp3712
I23
aI23
aI0
aI0
aa(lp3713
I0
aI57
aI43
aI0
aa(lp3714
I29
aI0
aI24
aI0
aaaI3
aa(lp3715
(lp3716
(lp3717
I57
aI0
aI0
aI42
aa(lp3718
I57
aI0
aI36
aI0
aa(lp3719
I0
aI29
aI30
aI27
aa(lp3720
I45
aI57
aI57
aI51
aaaI6
aa(lp3721
(lp3722
(lp3723
I57
aI0
aI11
aI0
aa(lp3724
I57
aI0
aI50
aI0
aa(lp3725
I57
aI0
aI30
aI0
aa(lp3726
I0
aI57
aI57
aI45
aaaI6
aa(lp3727
(lp3728
(lp3729
I0
aI39
aI57
aI0
aa(lp3730
I57
aI57
aI57
aI37
aa(lp3731
I43
aI8
aI38
aI0
aa(lp3732
I57
aI10
aI30
aI57
aaaI6
aa(lp3733
(lp3734
(lp3735
I0
aI0
aI0
aI0
aa(lp3736
I26
aI0
aI33
aI49
aa(lp3737
I0
aI19
aI57
aI0
aa(lp3738
I0
aI0
aI0
aI0
aaaI6
aa(lp3739
(lp3740
(lp3741
I14
aI0
aI0
aI5
aa(lp3742
I0
aI20
aI45
aI3
aa(lp3743
I0
aI43
aI57
aI0
aa(lp3744
I0
aI0
aI0
aI0
aaaI6
aa(lp3745
(lp3746
(lp3747
I38
aI0
aI17
aI1
aa(lp3748
I0
aI23
aI57
aI29
aa(lp3749
I47
aI7
aI57
aI27
aa(lp3750
I0
aI0
aI0
aI43
aaaI5
aa(lp3751
(lp3752
(lp3753
I0
aI0
aI0
aI0
aa(lp3754
I0
aI14
aI0
aI14
aa(lp3755
I0
aI29
aI0
aI0
aa(lp3756
I0
aI0
aI0
aI0
aaaI6
aa(lp3757
(lp3758
(lp3759
I57
aI0
aI18
aI22
aa(lp3760
I18
aI0
aI29
aI0
aa(lp3761
I0
aI57
aI15
aI31
aa(lp3762
I0
aI5
aI6
aI0
aaaI6
aa(lp3763
(lp3764
(lp3765
I0
aI9
aI17
aI14
aa(lp3766
I0
aI38
aI37
aI42
aa(lp3767
I2
aI3
aI0
aI0
aa(lp3768
I42
aI0
aI0
aI0
aaaI4
aa(lp3769
(lp3770
(lp3771
I0
aI26
aI12
aI5
aa(lp3772
I27
aI29
aI0
aI0
aa(lp3773
I34
aI57
aI34
aI0
aa(lp3774
I17
aI0
aI12
aI0
aaaI2
aa(lp3775
(lp3776
(lp3777
I29
aI45
aI0
aI7
aa(lp3778
I21
aI57
aI16
aI0
aa(lp3779
I0
aI57
aI28
aI43
aa(lp3780
I12
aI39
aI4
aI7
aaaI6
aa(lp3781
(lp3782
(lp3783
I0
aI0
aI46
aI38
aa(lp3784
I23
aI15
aI29
aI0
aa(lp3785
I36
aI57
aI0
aI30
aa(lp3786
I57
aI57
aI12
aI0
aaaI6
aa(lp3787
(lp3788
(lp3789
I0
aI0
aI42
aI0
aa(lp3790
I17
aI0
aI24
aI0
aa(lp3791
I0
aI38
aI33
aI0
aa(lp3792
I0
aI0
aI14
aI0
aaaI6
aa(lp3793
(lp3794
(lp3795
I10
aI34
aI9
aI1
aa(lp3796
I0
aI0
aI0
aI3
aa(lp3797
I41
aI0
aI0
aI8
aa(lp3798
I0
aI0
aI57
aI0
aaaI2
aa(lp3799
(lp3800
(lp3801
I0
aI0
aI57
aI4
aa(lp3802
I33
aI0
aI0
aI57
aa(lp3803
I57
aI46
aI0
aI57
aa(lp3804
I57
aI0
aI57
aI9
aaaI6
aa(lp3805
(lp3806
(lp3807
I9
aI23
aI7
aI4
aa(lp3808
I21
aI0
aI0
aI20
aa(lp3809
I48
aI34
aI0
aI45
aa(lp3810
I57
aI57
aI16
aI57
aaaI1
aa(lp3811
(lp3812
(lp3813
I0
aI0
aI0
aI24
aa(lp3814
I0
aI6
aI33
aI14
aa(lp3815
I0
aI0
aI27
aI5
aa(lp3816
I57
aI57
aI39
aI57
aaaI6
aa(lp3817
(lp3818
(lp3819
I1
aI0
aI0
aI24
aa(lp3820
I0
aI6
aI33
aI25
aa(lp3821
I0
aI0
aI31
aI5
aa(lp3822
I57
aI57
aI41
aI57
aaaI6
aa(lp3823
(lp3824
(lp3825
I12
aI13
aI5
aI0
aa(lp3826
I24
aI0
aI20
aI26
aa(lp3827
I0
aI42
aI30
aI43
aa(lp3828
I57
aI57
aI0
aI57
aaaI2
aa(lp3829
(lp3830
(lp3831
I0
aI0
aI0
aI5
aa(lp3832
I0
aI0
aI0
aI22
aa(lp3833
I0
aI6
aI29
aI0
aa(lp3834
I0
aI57
aI57
aI45
aaaI6
aa(lp3835
(lp3836
(lp3837
I0
aI1
aI35
aI7
aa(lp3838
I23
aI14
aI0
aI57
aa(lp3839
I0
aI0
aI0
aI0
aa(lp3840
I46
aI0
aI40
aI0
aaaI4
aa(lp3841
(lp3842
(lp3843
I0
aI34
aI1
aI37
aa(lp3844
I14
aI57
aI2
aI57
aa(lp3845
I31
aI0
aI10
aI35
aa(lp3846
I46
aI0
aI0
aI0
aaaI5
aa(lp3847
(lp3848
(lp3849
I1
aI0
aI0
aI0
aa(lp3850
I0
aI0
aI21
aI0
aa(lp3851
I0
aI30
aI36
aI0
aa(lp3852
I50
aI9
aI43
aI0
aaaI6
aa(lp3853
(lp3854
(lp3855
I36
aI57
aI0
aI0
aa(lp3856
I0
aI0
aI45
aI1
aa(lp3857
I27
aI3
aI30
aI2
aa(lp3858
I0
aI39
aI21
aI0
aaaI6
aa(lp3859
(lp3860
(lp3861
I0
aI7
aI1
aI13
aa(lp3862
I0
aI0
aI0
aI0
aa(lp3863
I0
aI2
aI24
aI0
aa(lp3864
I43
aI41
aI11
aI0
aaaI2
aa(lp3865
(lp3866
(lp3867
I0
aI4
aI8
aI24
aa(lp3868
I0
aI0
aI38
aI0
aa(lp3869
I0
aI36
aI57
aI19
aa(lp3870
I57
aI57
aI26
aI0
aaaI2
aa(lp3871
(lp3872
(lp3873
I0
aI52
aI51
aI57
aa(lp3874
I0
aI45
aI0
aI0
aa(lp3875
I57
aI47
aI0
aI0
aa(lp3876
I0
aI18
aI26
aI4
aaaI6
aa(lp3877
(lp3878
(lp3879
I12
aI3
aI0
aI23
aa(lp3880
I0
aI0
aI0
aI0
aa(lp3881
I37
aI0
aI29
aI1
aa(lp3882
I0
aI6
aI0
aI42
aaaI5
aa(lp3883
(lp3884
(lp3885
I1
aI0
aI27
aI0
aa(lp3886
I7
aI0
aI13
aI0
aa(lp3887
I0
aI0
aI0
aI0
aa(lp3888
I49
aI23
aI42
aI48
aaaI6
aa(lp3889
(lp3890
(lp3891
I0
aI14
aI16
aI0
aa(lp3892
I0
aI34
aI0
aI0
aa(lp3893
I0
aI39
aI29
aI51
aa(lp3894
I47
aI8
aI0
aI34
aaaI6
aa(lp3895
(lp3896
(lp3897
I35
aI0
aI1
aI20
aa(lp3898
I45
aI4
aI0
aI0
aa(lp3899
I0
aI0
aI26
aI0
aa(lp3900
I0
aI7
aI49
aI47
aaaI4
aa(lp3901
(lp3902
(lp3903
I24
aI57
aI0
aI24
aa(lp3904
I17
aI14
aI57
aI4
aa(lp3905
I43
aI0
aI29
aI57
aa(lp3906
I0
aI47
aI1
aI57
aaaI6
aa(lp3907
(lp3908
(lp3909
I36
aI0
aI36
aI31
aa(lp3910
I8
aI0
aI0
aI0
aa(lp3911
I0
aI0
aI25
aI0
aa(lp3912
I0
aI6
aI0
aI0
aaaI3
aa(lp3913
(lp3914
(lp3915
I4
aI7
aI57
aI7
aa(lp3916
I57
aI14
aI25
aI28
aa(lp3917
I0
aI48
aI38
aI0
aa(lp3918
I0
aI57
aI42
aI49
aaaI6
aa(lp3919
(lp3920
(lp3921
I44
aI0
aI7
aI10
aa(lp3922
I57
aI0
aI3
aI0
aa(lp3923
I0
aI0
aI31
aI0
aa(lp3924
I0
aI49
aI41
aI0
aaaI3
aa(lp3925
(lp3926
(lp3927
I0
aI39
aI12
aI5
aa(lp3928
I1
aI0
aI0
aI13
aa(lp3929
I28
aI0
aI0
aI57
aa(lp3930
I17
aI57
aI0
aI57
aaaI6
aa(lp3931
(lp3932
(lp3933
I1
aI10
aI1
aI57
aa(lp3934
I0
aI22
aI18
aI29
aa(lp3935
I57
aI34
aI57
aI57
aa(lp3936
I57
aI57
aI41
aI57
aaaI3
aa(lp3937
(lp3938
(lp3939
I25
aI57
aI20
aI17
aa(lp3940
I57
aI57
aI57
aI42
aa(lp3941
I29
aI0
aI0
aI57
aa(lp3942
I0
aI0
aI48
aI50
aaaI6
aa(lp3943
(lp3944
(lp3945
I0
aI0
aI0
aI0
aa(lp3946
I0
aI22
aI0
aI0
aa(lp3947
I57
aI9
aI57
aI29
aa(lp3948
I50
aI39
aI0
aI31
aaaI6
aa(lp3949
(lp3950
(lp3951
I22
aI0
aI24
aI37
aa(lp3952
I14
aI57
aI57
aI57
aa(lp3953
I27
aI0
aI46
aI0
aa(lp3954
I4
aI20
aI0
aI0
aaaI2
aa(lp3955
(lp3956
(lp3957
I1
aI9
aI3
aI8
aa(lp3958
I29
aI45
aI0
aI0
aa(lp3959
I0
aI33
aI50
aI27
aa(lp3960
I0
aI0
aI0
aI0
aaaI2
aa(lp3961
(lp3962
(lp3963
I22
aI4
aI23
aI19
aa(lp3964
I14
aI41
aI0
aI0
aa(lp3965
I48
aI0
aI30
aI0
aa(lp3966
I0
aI0
aI57
aI8
aaaI2
aa(lp3967
(lp3968
(lp3969
I9
aI0
aI1
aI5
aa(lp3970
I0
aI9
aI0
aI23
aa(lp3971
I38
aI27
aI16
aI0
aa(lp3972
I42
aI0
aI57
aI41
aaaI5
aa(lp3973
(lp3974
(lp3975
I57
aI12
aI32
aI26
aa(lp3976
I11
aI18
aI0
aI1
aa(lp3977
I0
aI0
aI29
aI0
aa(lp3978
I1
aI0
aI0
aI0
aaaI6
aa(lp3979
(lp3980
(lp3981
I48
aI43
aI0
aI9
aa(lp3982
I0
aI0
aI51
aI45
aa(lp3983
I25
aI0
aI27
aI0
aa(lp3984
I0
aI6
aI17
aI0
aaaI6
aa(lp3985
(lp3986
(lp3987
I0
aI5
aI13
aI0
aa(lp3988
I57
aI0
aI57
aI0
aa(lp3989
I0
aI0
aI0
aI0
aa(lp3990
I0
aI40
aI0
aI38
aaaI6
aa(lp3991
(lp3992
(lp3993
I0
aI0
aI0
aI0
aa(lp3994
I57
aI0
aI57
aI27
aa(lp3995
I39
aI37
aI0
aI0
aa(lp3996
I19
aI0
aI0
aI11
aaaI6
aa(lp3997
(lp3998
(lp3999
I4
aI17
aI0
aI12
aa(lp4000
I57
aI0
aI57
aI0
aa(lp4001
I47
aI42
aI33
aI0
aa(lp4002
I0
aI0
aI0
aI35
aaaI1
aa(lp4003
(lp4004
(lp4005
I0
aI21
aI30
aI12
aa(lp4006
I0
aI0
aI18
aI2
aa(lp4007
I35
aI48
aI6
aI0
aa(lp4008
I0
aI9
aI0
aI39
aaaI1
aa(lp4009
(lp4010
(lp4011
I0
aI41
aI0
aI0
aa(lp4012
I18
aI14
aI2
aI0
aa(lp4013
I3
aI27
aI49
aI0
aa(lp4014
I0
aI0
aI0
aI10
aaaI6
aa(lp4015
(lp4016
(lp4017
I1
aI1
aI36
aI15
aa(lp4018
I0
aI0
aI0
aI10
aa(lp4019
I51
aI0
aI0
aI0
aa(lp4020
I0
aI0
aI48
aI0
aaaI2
aa(lp4021
(lp4022
(lp4023
I0
aI3
aI22
aI1
aa(lp4024
I26
aI0
aI20
aI33
aa(lp4025
I57
aI57
aI27
aI0
aa(lp4026
I57
aI0
aI35
aI0
aaaI1
aa(lp4027
(lp4028
(lp4029
I21
aI0
aI0
aI8
aa(lp4030
I25
aI0
aI0
aI0
aa(lp4031
I57
aI57
aI0
aI0
aa(lp4032
I57
aI0
aI15
aI0
aaaI6
aa(lp4033
(lp4034
(lp4035
I32
aI0
aI1
aI0
aa(lp4036
I14
aI14
aI26
aI26
aa(lp4037
I57
aI57
aI48
aI0
aa(lp4038
I57
aI39
aI57
aI57
aaaI6
aa(lp4039
(lp4040
(lp4041
I39
aI2
aI37
aI35
aa(lp4042
I0
aI25
aI14
aI27
aa(lp4043
I57
aI57
aI27
aI50
aa(lp4044
I57
aI21
aI57
aI57
aaaI5
aa(lp4045
(lp4046
(lp4047
I23
aI36
aI51
aI57
aa(lp4048
I0
aI0
aI0
aI46
aa(lp4049
I0
aI39
aI30
aI0
aa(lp4050
I0
aI0
aI0
aI25
aaaI6
aa(lp4051
(lp4052
(lp4053
I18
aI0
aI3
aI57
aa(lp4054
I0
aI15
aI57
aI0
aa(lp4055
I0
aI2
aI57
aI0
aa(lp4056
I10
aI0
aI39
aI57
aaaI6
aa(lp4057
(lp4058
(lp4059
I21
aI28
aI0
aI25
aa(lp4060
I34
aI25
aI31
aI57
aa(lp4061
I0
aI27
aI0
aI4
aa(lp4062
I51
aI0
aI39
aI0
aaaI1
aa(lp4063
(lp4064
(lp4065
I39
aI0
aI0
aI0
aa(lp4066
I26
aI0
aI57
aI57
aa(lp4067
I57
aI6
aI57
aI57
aa(lp4068
I11
aI0
aI0
aI0
aaaI6
aa(lp4069
(lp4070
(lp4071
I49
aI4
aI0
aI5
aa(lp4072
I0
aI0
aI32
aI46
aa(lp4073
I0
aI37
aI0
aI0
aa(lp4074
I0
aI22
aI0
aI0
aaaI1
aa(lp4075
(lp4076
(lp4077
I22
aI1
aI26
aI5
aa(lp4078
I49
aI0
aI0
aI0
aa(lp4079
I0
aI31
aI20
aI0
aa(lp4080
I11
aI0
aI0
aI36
aaaI3
aa(lp4081
(lp4082
(lp4083
I4
aI3
aI1
aI52
aa(lp4084
I57
aI18
aI0
aI0
aa(lp4085
I0
aI57
aI0
aI0
aa(lp4086
I39
aI20
aI39
aI15
aaaI1
aa(lp4087
(lp4088
(lp4089
I46
aI0
aI51
aI13
aa(lp4090
I57
aI0
aI0
aI22
aa(lp4091
I37
aI57
aI12
aI0
aa(lp4092
I0
aI42
aI0
aI0
aaaI6
aa(lp4093
(lp4094
(lp4095
I0
aI2
aI12
aI42
aa(lp4096
I0
aI0
aI0
aI15
aa(lp4097
I0
aI35
aI0
aI49
aa(lp4098
I30
aI0
aI0
aI6
aaaI4
aa(lp4099
(lp4100
(lp4101
I0
aI26
aI9
aI31
aa(lp4102
I14
aI47
aI21
aI0
aa(lp4103
I37
aI0
aI0
aI30
aa(lp4104
I0
aI0
aI6
aI0
aaaI2
aa(lp4105
(lp4106
(lp4107
I0
aI10
aI0
aI5
aa(lp4108
I0
aI25
aI0
aI26
aa(lp4109
I0
aI27
aI30
aI0
aa(lp4110
I39
aI0
aI0
aI1
aaaI6
aa(lp4111
(lp4112
(lp4113
I0
aI0
aI45
aI0
aa(lp4114
I0
aI46
aI57
aI0
aa(lp4115
I57
aI30
aI57
aI57
aa(lp4116
I0
aI7
aI0
aI0
aaaI6
aa(lp4117
(lp4118
(lp4119
I0
aI3
aI2
aI0
aa(lp4120
I0
aI16
aI34
aI0
aa(lp4121
I0
aI0
aI29
aI36
aa(lp4122
I49
aI0
aI0
aI3
aaaI6
aa(lp4123
(lp4124
(lp4125
I0
aI10
aI35
aI35
aa(lp4126
I0
aI43
aI0
aI57
aa(lp4127
I0
aI22
aI0
aI51
aa(lp4128
I0
aI0
aI7
aI5
aaaI3
aa(lp4129
(lp4130
(lp4131
I35
aI0
aI2
aI30
aa(lp4132
I5
aI14
aI0
aI0
aa(lp4133
I0
aI0
aI0
aI0
aa(lp4134
I12
aI0
aI0
aI0
aaaI3
aa(lp4135
(lp4136
(lp4137
I31
aI0
aI33
aI35
aa(lp4138
I0
aI0
aI0
aI0
aa(lp4139
I0
aI0
aI0
aI0
aa(lp4140
I0
aI27
aI0
aI0
aaaI6
aa(lp4141
(lp4142
(lp4143
I0
aI1
aI0
aI26
aa(lp4144
I47
aI15
aI2
aI2
aa(lp4145
I57
aI0
aI51
aI0
aa(lp4146
I0
aI0
aI0
aI50
aaaI6
aa(lp4147
(lp4148
(lp4149
I4
aI5
aI0
aI18
aa(lp4150
I57
aI0
aI0
aI16
aa(lp4151
I0
aI0
aI46
aI0
aa(lp4152
I0
aI40
aI0
aI0
aaaI4
aa(lp4153
(lp4154
(lp4155
I18
aI17
aI0
aI25
aa(lp4156
I4
aI32
aI14
aI20
aa(lp4157
I0
aI41
aI50
aI39
aa(lp4158
I6
aI45
aI0
aI10
aaaI3
aa(lp4159
(lp4160
(lp4161
I1
aI5
aI0
aI4
aa(lp4162
I18
aI0
aI0
aI19
aa(lp4163
I30
aI0
aI27
aI0
aa(lp4164
I57
aI0
aI0
aI0
aaaI4
aa(lp4165
(lp4166
(lp4167
I0
aI5
aI23
aI21
aa(lp4168
I45
aI0
aI0
aI29
aa(lp4169
I0
aI7
aI0
aI0
aa(lp4170
I2
aI0
aI0
aI0
aaaI5
aa(lp4171
(lp4172
(lp4173
I0
aI0
aI51
aI0
aa(lp4174
I0
aI27
aI0
aI0
aa(lp4175
I38
aI41
aI27
aI14
aa(lp4176
I37
aI0
aI21
aI0
aaaI6
aa(lp4177
(lp4178
(lp4179
I27
aI0
aI45
aI1
aa(lp4180
I21
aI0
aI43
aI9
aa(lp4181
I0
aI0
aI57
aI0
aa(lp4182
I0
aI10
aI0
aI0
aaaI2
aa(lp4183
(lp4184
(lp4185
I1
aI0
aI27
aI16
aa(lp4186
I0
aI0
aI20
aI57
aa(lp4187
I26
aI57
aI57
aI6
aa(lp4188
I0
aI0
aI39
aI0
aaaI6
aa(lp4189
(lp4190
(lp4191
I6
aI22
aI0
aI29
aa(lp4192
I17
aI22
aI0
aI34
aa(lp4193
I27
aI0
aI0
aI0
aa(lp4194
I39
aI19
aI47
aI32
aaaI4
aa(lp4195
(lp4196
(lp4197
I0
aI0
aI0
aI0
aa(lp4198
I3
aI14
aI0
aI8
aa(lp4199
I23
aI49
aI41
aI0
aa(lp4200
I28
aI0
aI1
aI25
aaaI6
aa(lp4201
(lp4202
(lp4203
I3
aI0
aI0
aI45
aa(lp4204
I25
aI25
aI0
aI50
aa(lp4205
I0
aI0
aI30
aI38
aa(lp4206
I0
aI0
aI57
aI41
aaaI6
aa(lp4207
(lp4208
(lp4209
I8
aI1
aI7
aI1
aa(lp4210
I28
aI14
aI14
aI57
aa(lp4211
I0
aI29
aI29
aI0
aa(lp4212
I0
aI0
aI57
aI0
aaaI3
aa(lp4213
(lp4214
(lp4215
I40
aI0
aI1
aI0
aa(lp4216
I17
aI0
aI0
aI57
aa(lp4217
I0
aI0
aI44
aI35
aa(lp4218
I0
aI22
aI57
aI0
aaaI6
aa(lp4219
(lp4220
(lp4221
I57
aI18
aI3
aI8
aa(lp4222
I0
aI28
aI57
aI57
aa(lp4223
I0
aI57
aI0
aI0
aa(lp4224
I45
aI38
aI57
aI24
aaaI6
aa(lp4225
(lp4226
(lp4227
I0
aI23
aI0
aI1
aa(lp4228
I0
aI50
aI24
aI32
aa(lp4229
I17
aI28
aI0
aI0
aa(lp4230
I48
aI0
aI57
aI2
aaaI6
aa(lp4231
(lp4232
(lp4233
I11
aI42
aI0
aI4
aa(lp4234
I0
aI38
aI57
aI57
aa(lp4235
I9
aI0
aI0
aI57
aa(lp4236
I57
aI39
aI0
aI25
aaaI3
aa(lp4237
(lp4238
(lp4239
I13
aI0
aI1
aI16
aa(lp4240
I31
aI20
aI0
aI0
aa(lp4241
I0
aI0
aI0
aI46
aa(lp4242
I48
aI0
aI0
aI39
aaaI3
aa(lp4243
(lp4244
(lp4245
I0
aI7
aI50
aI4
aa(lp4246
I0
aI23
aI14
aI0
aa(lp4247
I29
aI0
aI29
aI0
aa(lp4248
I39
aI49
aI47
aI0
aaaI1
aa(lp4249
(lp4250
(lp4251
I0
aI12
aI0
aI0
aa(lp4252
I0
aI49
aI34
aI0
aa(lp4253
I0
aI0
aI27
aI32
aa(lp4254
I0
aI57
aI57
aI41
aaaI6
aa(lp4255
(lp4256
(lp4257
I19
aI1
aI8
aI0
aa(lp4258
I57
aI9
aI3
aI0
aa(lp4259
I48
aI0
aI0
aI38
aa(lp4260
I10
aI25
aI40
aI0
aaaI5
aa(lp4261
(lp4262
(lp4263
I0
aI21
aI1
aI33
aa(lp4264
I57
aI48
aI0
aI0
aa(lp4265
I6
aI0
aI8
aI0
aa(lp4266
I0
aI24
aI43
aI0
aaaI2
aa(lp4267
(lp4268
(lp4269
I0
aI0
aI57
aI0
aa(lp4270
I0
aI36
aI25
aI4
aa(lp4271
I57
aI57
aI3
aI49
aa(lp4272
I0
aI0
aI19
aI22
aaaI6
aa(lp4273
(lp4274
(lp4275
I0
aI39
aI12
aI5
aa(lp4276
I15
aI13
aI37
aI26
aa(lp4277
I0
aI37
aI0
aI0
aa(lp4278
I57
aI0
aI0
aI49
aaaI5
aa(lp4279
(lp4280
(lp4281
I0
aI0
aI0
aI0
aa(lp4282
I0
aI57
aI7
aI14
aa(lp4283
I39
aI0
aI36
aI27
aa(lp4284
I57
aI0
aI17
aI0
aaaI6
aa(lp4285
(lp4286
(lp4287
I0
aI12
aI15
aI47
aa(lp4288
I6
aI57
aI57
aI30
aa(lp4289
I0
aI57
aI34
aI0
aa(lp4290
I57
aI17
aI57
aI57
aaaI3
aa(lp4291
(lp4292
(lp4293
I7
aI43
aI19
aI0
aa(lp4294
I57
aI0
aI0
aI4
aa(lp4295
I51
aI0
aI57
aI0
aa(lp4296
I0
aI16
aI29
aI0
aaaI6
aa(lp4297
(lp4298
(lp4299
I57
aI15
aI41
aI3
aa(lp4300
I57
aI29
aI22
aI29
aa(lp4301
I9
aI14
aI57
aI27
aa(lp4302
I0
aI0
aI57
aI29
aaaI5
aa(lp4303
(lp4304
(lp4305
I57
aI14
aI0
aI11
aa(lp4306
I57
aI57
aI57
aI0
aa(lp4307
I57
aI0
aI27
aI0
aa(lp4308
I2
aI32
aI57
aI0
aaaI6
aa(lp4309
(lp4310
(lp4311
I1
aI29
aI0
aI24
aa(lp4312
I17
aI0
aI0
aI20
aa(lp4313
I5
aI57
aI0
aI38
aa(lp4314
I41
aI41
aI39
aI0
aaaI6
aa(lp4315
(lp4316
(lp4317
I0
aI26
aI57
aI0
aa(lp4318
I1
aI16
aI45
aI14
aa(lp4319
I57
aI57
aI0
aI41
aa(lp4320
I57
aI16
aI9
aI0
aaaI6
aa(lp4321
(lp4322
(lp4323
I9
aI26
aI18
aI4
aa(lp4324
I14
aI14
aI36
aI0
aa(lp4325
I29
aI0
aI0
aI27
aa(lp4326
I0
aI0
aI51
aI0
aaaI2
aa(lp4327
(lp4328
(lp4329
I29
aI57
aI4
aI0
aa(lp4330
I57
aI0
aI20
aI14
aa(lp4331
I0
aI0
aI38
aI0
aa(lp4332
I0
aI57
aI0
aI14
aaaI6
aa(lp4333
(lp4334
(lp4335
I0
aI0
aI0
aI13
aa(lp4336
I57
aI0
aI0
aI51
aa(lp4337
I57
aI0
aI26
aI57
aa(lp4338
I0
aI34
aI6
aI0
aaaI6
aa(lp4339
(lp4340
(lp4341
I46
aI1
aI11
aI8
aa(lp4342
I57
aI14
aI38
aI21
aa(lp4343
I0
aI57
aI57
aI57
aa(lp4344
I42
aI0
aI0
aI57
aaaI2
aa(lp4345
(lp4346
(lp4347
I45
aI23
aI4
aI22
aa(lp4348
I57
aI0
aI28
aI0
aa(lp4349
I39
aI57
aI57
aI57
aa(lp4350
I6
aI33
aI0
aI57
aaaI6
aa(lp4351
(lp4352
(lp4353
I0
aI19
aI0
aI12
aa(lp4354
I57
aI35
aI57
aI57
aa(lp4355
I43
aI24
aI57
aI0
aa(lp4356
I39
aI45
aI57
aI51
aaaI6
aa(lp4357
(lp4358
(lp4359
I57
aI1
aI0
aI0
aa(lp4360
I57
aI5
aI57
aI57
aa(lp4361
I27
aI15
aI57
aI57
aa(lp4362
I57
aI57
aI57
aI23
aaaI6
aa(lp4363
(lp4364
(lp4365
I18
aI20
aI14
aI1
aa(lp4366
I26
aI39
aI40
aI57
aa(lp4367
I0
aI0
aI0
aI27
aa(lp4368
I0
aI0
aI57
aI0
aaaI4
aa(lp4369
(lp4370
(lp4371
I52
aI0
aI31
aI1
aa(lp4372
I18
aI38
aI40
aI20
aa(lp4373
I0
aI57
aI10
aI0
aa(lp4374
I0
aI0
aI40
aI0
aaaI6
aa(lp4375
(lp4376
(lp4377
I42
aI18
aI42
aI1
aa(lp4378
I57
aI21
aI57
aI49
aa(lp4379
I57
aI57
aI27
aI46
aa(lp4380
I16
aI0
aI0
aI0
aaaI6
aa(lp4381
(lp4382
(lp4383
I5
aI0
aI0
aI45
aa(lp4384
I57
aI14
aI57
aI17
aa(lp4385
I57
aI57
aI0
aI25
aa(lp4386
I33
aI14
aI0
aI2
aaaI6
aa(lp4387
(lp4388
(lp4389
I7
aI1
aI20
aI15
aa(lp4390
I57
aI1
aI57
aI0
aa(lp4391
I57
aI57
aI38
aI57
aa(lp4392
I47
aI7
aI0
aI36
aaaI2
aa(lp4393
(lp4394
(lp4395
I20
aI0
aI11
aI0
aa(lp4396
I57
aI16
aI57
aI20
aa(lp4397
I57
aI57
aI18
aI57
aa(lp4398
I0
aI39
aI40
aI21
aaaI6
aa(lp4399
(lp4400
(lp4401
I0
aI1
aI45
aI12
aa(lp4402
I57
aI37
aI57
aI16
aa(lp4403
I57
aI57
aI31
aI57
aa(lp4404
I0
aI0
aI31
aI0
aaaI6
aa(lp4405
(lp4406
(lp4407
I0
aI1
aI1
aI24
aa(lp4408
I57
aI48
aI57
aI16
aa(lp4409
I57
aI57
aI30
aI57
aa(lp4410
I0
aI0
aI46
aI0
aaaI3
aa(lp4411
(lp4412
(lp4413
I0
aI1
aI12
aI27
aa(lp4414
I57
aI5
aI57
aI24
aa(lp4415
I57
aI57
aI0
aI57
aa(lp4416
I0
aI47
aI48
aI0
aaaI2
aa(lp4417
(lp4418
(lp4419
I44
aI57
aI40
aI12
aa(lp4420
I20
aI0
aI0
aI15
aa(lp4421
I0
aI0
aI0
aI49
aa(lp4422
I34
aI8
aI42
aI21
aaaI5
aa(lp4423
(lp4424
(lp4425
I1
aI26
aI24
aI1
aa(lp4426
I7
aI0
aI14
aI2
aa(lp4427
I9
aI49
aI0
aI0
aa(lp4428
I57
aI39
aI26
aI45
aaaI1
aa(lp4429
(lp4430
(lp4431
I33
aI39
aI57
aI1
aa(lp4432
I0
aI0
aI0
aI57
aa(lp4433
I0
aI57
aI57
aI2
aa(lp4434
I11
aI57
aI57
aI57
aaaI6
aa(lp4435
(lp4436
(lp4437
I57
aI44
aI0
aI19
aa(lp4438
I43
aI14
aI12
aI0
aa(lp4439
I38
aI57
aI39
aI34
aa(lp4440
I23
aI0
aI0
aI57
aaaI6
aa(lp4441
(lp4442
(lp4443
I57
aI1
aI1
aI26
aa(lp4444
I28
aI23
aI41
aI0
aa(lp4445
I57
aI0
aI57
aI57
aa(lp4446
I57
aI14
aI57
aI46
aaaI5
aa(lp4447
(lp4448
(lp4449
I16
aI2
aI25
aI0
aa(lp4450
I0
aI4
aI39
aI0
aa(lp4451
I39
aI0
aI0
aI0
aa(lp4452
I0
aI49
aI0
aI0
aaaI6
aa(lp4453
(lp4454
(lp4455
I12
aI13
aI0
aI0
aa(lp4456
I32
aI38
aI33
aI26
aa(lp4457
I0
aI20
aI0
aI0
aa(lp4458
I0
aI7
aI0
aI39
aaaI6
aa(lp4459
(lp4460
(lp4461
I18
aI13
aI4
aI0
aa(lp4462
I35
aI41
aI36
aI0
aa(lp4463
I0
aI0
aI0
aI27
aa(lp4464
I0
aI7
aI39
aI51
aaaI5
aa(lp4465
(lp4466
(lp4467
I0
aI0
aI0
aI0
aa(lp4468
I0
aI6
aI0
aI49
aa(lp4469
I0
aI0
aI35
aI30
aa(lp4470
I39
aI46
aI0
aI32
aaaI6
aa(lp4471
(lp4472
(lp4473
I1
aI30
aI1
aI24
aa(lp4474
I0
aI0
aI0
aI10
aa(lp4475
I27
aI0
aI3
aI0
aa(lp4476
I57
aI39
aI43
aI41
aaaI2
aa(lp4477
(lp4478
(lp4479
I0
aI12
aI1
aI19
aa(lp4480
I0
aI0
aI14
aI0
aa(lp4481
I0
aI0
aI0
aI0
aa(lp4482
I51
aI50
aI0
aI0
aaaI5
aa(lp4483
(lp4484
(lp4485
I57
aI10
aI3
aI43
aa(lp4486
I57
aI0
aI0
aI0
aa(lp4487
I0
aI42
aI57
aI57
aa(lp4488
I21
aI57
aI0
aI0
aaaI6
aa(lp4489
(lp4490
(lp4491
I8
aI9
aI0
aI1
aa(lp4492
I0
aI44
aI0
aI20
aa(lp4493
I37
aI14
aI27
aI0
aa(lp4494
I0
aI46
aI0
aI32
aaaI6
aa(lp4495
(lp4496
(lp4497
I57
aI0
aI0
aI0
aa(lp4498
I23
aI34
aI28
aI0
aa(lp4499
I0
aI57
aI21
aI19
aa(lp4500
I42
aI14
aI57
aI57
aaaI6
aa(lp4501
(lp4502
(lp4503
I13
aI26
aI4
aI57
aa(lp4504
I0
aI0
aI41
aI0
aa(lp4505
I57
aI19
aI0
aI12
aa(lp4506
I0
aI0
aI28
aI45
aaaI3
aa(lp4507
(lp4508
(lp4509
I32
aI5
aI12
aI57
aa(lp4510
I16
aI3
aI57
aI14
aa(lp4511
I0
aI0
aI3
aI30
aa(lp4512
I11
aI46
aI0
aI39
aaaI6
aa(lp4513
(lp4514
(lp4515
I36
aI12
aI0
aI31
aa(lp4516
I0
aI0
aI0
aI51
aa(lp4517
I23
aI0
aI0
aI57
aa(lp4518
I0
aI0
aI0
aI40
aaaI3
aa(lp4519
(lp4520
(lp4521
I36
aI14
aI1
aI39
aa(lp4522
I0
aI0
aI0
aI15
aa(lp4523
I31
aI0
aI0
aI57
aa(lp4524
I0
aI0
aI43
aI43
aaaI1
aa(lp4525
(lp4526
(lp4527
I1
aI57
aI1
aI2
aa(lp4528
I57
aI57
aI0
aI0
aa(lp4529
I57
aI57
aI30
aI43
aa(lp4530
I57
aI42
aI57
aI57
aaaI3
aa(lp4531
(lp4532
(lp4533
I1
aI10
aI24
aI57
aa(lp4534
I14
aI0
aI50
aI34
aa(lp4535
I0
aI21
aI27
aI0
aa(lp4536
I0
aI0
aI50
aI0
aaaI5
aa(lp4537
(lp4538
(lp4539
I29
aI0
aI17
aI0
aa(lp4540
I17
aI1
aI0
aI25
aa(lp4541
I0
aI0
aI0
aI0
aa(lp4542
I10
aI0
aI0
aI46
aaaI6
aa(lp4543
(lp4544
(lp4545
I20
aI51
aI1
aI25
aa(lp4546
I0
aI0
aI21
aI28
aa(lp4547
I0
aI44
aI0
aI0
aa(lp4548
I0
aI0
aI23
aI0
aaaI1
aa(lp4549
(lp4550
(lp4551
I19
aI40
aI1
aI13
aa(lp4552
I0
aI0
aI28
aI43
aa(lp4553
I0
aI0
aI28
aI57
aa(lp4554
I8
aI57
aI6
aI0
aaaI5
aa(lp4555
(lp4556
(lp4557
I0
aI0
aI0
aI57
aa(lp4558
I31
aI57
aI0
aI0
aa(lp4559
I57
aI27
aI9
aI27
aa(lp4560
I45
aI22
aI44
aI0
aaaI6
aa(lp4561
(lp4562
(lp4563
I19
aI1
aI11
aI18
aa(lp4564
I37
aI0
aI0
aI14
aa(lp4565
I35
aI0
aI0
aI30
aa(lp4566
I0
aI57
aI0
aI14
aaaI2
aa(lp4567
(lp4568
(lp4569
I0
aI5
aI19
aI26
aa(lp4570
I17
aI0
aI19
aI16
aa(lp4571
I37
aI38
aI0
aI37
aa(lp4572
I0
aI57
aI0
aI12
aaaI4
aa(lp4573
(lp4574
(lp4575
I0
aI7
aI43
aI0
aa(lp4576
I0
aI21
aI38
aI0
aa(lp4577
I0
aI30
aI27
aI1
aa(lp4578
I0
aI57
aI17
aI39
aaaI6
aa(lp4579
(lp4580
(lp4581
I20
aI5
aI0
aI0
aa(lp4582
I0
aI27
aI0
aI0
aa(lp4583
I12
aI9
aI33
aI46
aa(lp4584
I48
aI0
aI22
aI0
aaaI6
aa(lp4585
(lp4586
(lp4587
I0
aI0
aI24
aI5
aa(lp4588
I0
aI14
aI14
aI1
aa(lp4589
I6
aI57
aI33
aI20
aa(lp4590
I0
aI0
aI0
aI42
aaaI6
aa(lp4591
(lp4592
(lp4593
I0
aI41
aI24
aI1
aa(lp4594
I0
aI57
aI57
aI22
aa(lp4595
I57
aI57
aI0
aI45
aa(lp4596
I36
aI57
aI0
aI0
aaaI3
aa(lp4597
(lp4598
(lp4599
I7
aI0
aI57
aI0
aa(lp4600
I0
aI0
aI14
aI0
aa(lp4601
I50
aI57
aI0
aI57
aa(lp4602
I0
aI15
aI42
aI19
aaaI6
aa(lp4603
(lp4604
(lp4605
I5
aI0
aI0
aI0
aa(lp4606
I33
aI0
aI0
aI0
aa(lp4607
I0
aI44
aI0
aI0
aa(lp4608
I22
aI0
aI0
aI1
aaaI6
aa(lp4609
(lp4610
(lp4611
I0
aI0
aI4
aI34
aa(lp4612
I26
aI0
aI0
aI0
aa(lp4613
I16
aI0
aI0
aI33
aa(lp4614
I57
aI39
aI37
aI39
aaaI6
aa(lp4615
(lp4616
(lp4617
I27
aI28
aI2
aI57
aa(lp4618
I0
aI51
aI0
aI0
aa(lp4619
I40
aI0
aI33
aI0
aa(lp4620
I57
aI0
aI0
aI6
aaaI4
aa(lp4621
(lp4622
(lp4623
I33
aI42
aI3
aI57
aa(lp4624
I20
aI29
aI14
aI14
aa(lp4625
I0
aI51
aI14
aI6
aa(lp4626
I57
aI0
aI16
aI43
aaaI1
aa(lp4627
(lp4628
(lp4629
I0
aI8
aI1
aI13
aa(lp4630
I0
aI0
aI44
aI0
aa(lp4631
I0
aI39
aI0
aI0
aa(lp4632
I50
aI11
aI0
aI0
aaaI5
aa(lp4633
(lp4634
(lp4635
I0
aI0
aI0
aI0
aa(lp4636
I57
aI7
aI32
aI57
aa(lp4637
I29
aI57
aI28
aI37
aa(lp4638
I0
aI47
aI14
aI14
aaaI6
aa(lp4639
(lp4640
(lp4641
I39
aI0
aI38
aI0
aa(lp4642
I57
aI33
aI3
aI57
aa(lp4643
I0
aI57
aI49
aI19
aa(lp4644
I39
aI4
aI50
aI30
aaaI6
aa(lp4645
(lp4646
(lp4647
I0
aI0
aI20
aI57
aa(lp4648
I16
aI57
aI1
aI57
aa(lp4649
I0
aI38
aI21
aI57
aa(lp4650
I0
aI49
aI0
aI0
aaaI6
aa(lp4651
(lp4652
(lp4653
I1
aI0
aI8
aI19
aa(lp4654
I25
aI0
aI0
aI0
aa(lp4655
I18
aI0
aI0
aI40
aa(lp4656
I57
aI51
aI57
aI47
aaaI3
aa(lp4657
(lp4658
(lp4659
I5
aI0
aI4
aI19
aa(lp4660
I15
aI14
aI20
aI57
aa(lp4661
I0
aI0
aI28
aI57
aa(lp4662
I0
aI0
aI40
aI0
aaaI1
aa(lp4663
(lp4664
(lp4665
I37
aI38
aI7
aI0
aa(lp4666
I57
aI0
aI57
aI57
aa(lp4667
I47
aI57
aI0
aI57
aa(lp4668
I0
aI50
aI0
aI0
aaaI3
aa(lp4669
(lp4670
(lp4671
I0
aI4
aI1
aI21
aa(lp4672
I38
aI30
aI18
aI22
aa(lp4673
I49
aI0
aI0
aI57
aa(lp4674
I0
aI0
aI8
aI8
aaaI5
aa(lp4675
(lp4676
(lp4677
I0
aI0
aI57
aI0
aa(lp4678
I0
aI43
aI57
aI32
aa(lp4679
I0
aI0
aI2
aI57
aa(lp4680
I29
aI0
aI3
aI0
aaaI6
aa(lp4681
(lp4682
(lp4683
I0
aI0
aI57
aI1
aa(lp4684
I47
aI0
aI0
aI0
aa(lp4685
I16
aI57
aI57
aI27
aa(lp4686
I0
aI19
aI0
aI57
aaaI6
aa(lp4687
(lp4688
(lp4689
I1
aI32
aI5
aI21
aa(lp4690
I0
aI0
aI26
aI43
aa(lp4691
I0
aI27
aI0
aI0
aa(lp4692
I0
aI46
aI0
aI22
aaaI3
aa(lp4693
(lp4694
(lp4695
I45
aI4
aI18
aI0
aa(lp4696
I14
aI57
aI57
aI57
aa(lp4697
I57
aI0
aI40
aI57
aa(lp4698
I57
aI57
aI0
aI57
aaaI3
aa(lp4699
(lp4700
(lp4701
I57
aI0
aI34
aI30
aa(lp4702
I14
aI57
aI57
aI57
aa(lp4703
I57
aI10
aI48
aI57
aa(lp4704
I57
aI57
aI27
aI57
aaaI6
aa(lp4705
(lp4706
(lp4707
I14
aI15
aI0
aI0
aa(lp4708
I0
aI6
aI47
aI0
aa(lp4709
I0
aI0
aI34
aI0
aa(lp4710
I0
aI39
aI0
aI0
aaaI6
aa(lp4711
(lp4712
(lp4713
I0
aI0
aI0
aI0
aa(lp4714
I57
aI21
aI57
aI0
aa(lp4715
I0
aI0
aI57
aI57
aa(lp4716
I57
aI29
aI50
aI57
aaaI6
aa(lp4717
(lp4718
(lp4719
I27
aI0
aI14
aI40
aa(lp4720
I29
aI48
aI0
aI0
aa(lp4721
I1
aI0
aI0
aI7
aa(lp4722
I0
aI0
aI0
aI46
aaaI3
aa(lp4723
(lp4724
(lp4725
I45
aI1
aI0
aI14
aa(lp4726
I0
aI31
aI0
aI57
aa(lp4727
I41
aI30
aI57
aI0
aa(lp4728
I57
aI47
aI57
aI12
aaaI2
aa(lp4729
(lp4730
(lp4731
I45
aI5
aI0
aI24
aa(lp4732
I48
aI0
aI23
aI26
aa(lp4733
I41
aI0
aI0
aI0
aa(lp4734
I0
aI57
aI29
aI0
aaaI4
aa(lp4735
(lp4736
(lp4737
I3
aI1
aI0
aI30
aa(lp4738
I0
aI28
aI57
aI0
aa(lp4739
I0
aI36
aI57
aI37
aa(lp4740
I0
aI57
aI3
aI5
aaaI3
aa(lp4741
(lp4742
(lp4743
I0
aI12
aI0
aI0
aa(lp4744
I57
aI43
aI0
aI0
aa(lp4745
I0
aI0
aI57
aI27
aa(lp4746
I38
aI0
aI0
aI57
aaaI6
aa(lp4747
(lp4748
(lp4749
I4
aI1
aI1
aI39
aa(lp4750
I57
aI57
aI57
aI49
aa(lp4751
I0
aI0
aI57
aI26
aa(lp4752
I0
aI28
aI43
aI57
aaaI1
aa(lp4753
(lp4754
(lp4755
I3
aI14
aI0
aI24
aa(lp4756
I57
aI57
aI57
aI4
aa(lp4757
I45
aI57
aI57
aI57
aa(lp4758
I49
aI0
aI4
aI57
aaaI5
aa(lp4759
(lp4760
(lp4761
I0
aI16
aI2
aI1
aa(lp4762
I57
aI57
aI57
aI17
aa(lp4763
I0
aI57
aI57
aI57
aa(lp4764
I4
aI39
aI50
aI57
aaaI2
aa(lp4765
(lp4766
(lp4767
I38
aI1
aI1
aI11
aa(lp4768
I0
aI44
aI57
aI0
aa(lp4769
I30
aI0
aI0
aI0
aa(lp4770
I0
aI34
aI0
aI45
aaaI4
aa(lp4771
(lp4772
(lp4773
I45
aI1
aI24
aI25
aa(lp4774
I0
aI51
aI0
aI0
aa(lp4775
I0
aI0
aI6
aI0
aa(lp4776
I0
aI32
aI0
aI0
aaaI2
aa(lp4777
(lp4778
(lp4779
I1
aI0
aI16
aI7
aa(lp4780
I0
aI0
aI38
aI27
aa(lp4781
I0
aI0
aI0
aI8
aa(lp4782
I35
aI0
aI0
aI0
aaaI3
aa(lp4783
(lp4784
(lp4785
I5
aI0
aI18
aI23
aa(lp4786
I0
aI0
aI47
aI46
aa(lp4787
I0
aI0
aI40
aI0
aa(lp4788
I0
aI0
aI0
aI0
aaaI5
aa(lp4789
(lp4790
(lp4791
I0
aI0
aI1
aI0
aa(lp4792
I0
aI0
aI0
aI0
aa(lp4793
I0
aI0
aI31
aI0
aa(lp4794
I48
aI39
aI0
aI45
aaaI6
aa(lp4795
(lp4796
(lp4797
I38
aI0
aI0
aI0
aa(lp4798
I0
aI6
aI57
aI0
aa(lp4799
I0
aI14
aI0
aI57
aa(lp4800
I0
aI0
aI57
aI57
aaaI6
aa(lp4801
(lp4802
(lp4803
I57
aI22
aI1
aI21
aa(lp4804
I57
aI1
aI57
aI0
aa(lp4805
I40
aI57
aI57
aI57
aa(lp4806
I57
aI0
aI57
aI57
aaaI6
aa(lp4807
(lp4808
(lp4809
I8
aI57
aI1
aI25
aa(lp4810
I42
aI39
aI23
aI48
aa(lp4811
I10
aI0
aI0
aI0
aa(lp4812
I0
aI35
aI57
aI33
aaaI4
aa(lp4813
(lp4814
(lp4815
I0
aI0
aI0
aI0
aa(lp4816
I25
aI37
aI46
aI0
aa(lp4817
I10
aI27
aI0
aI0
aa(lp4818
I0
aI7
aI21
aI57
aaaI6
aa(lp4819
(lp4820
(lp4821
I33
aI8
aI19
aI0
aa(lp4822
I0
aI17
aI0
aI41
aa(lp4823
I38
aI0
aI27
aI0
aa(lp4824
I39
aI0
aI0
aI3
aaaI1
aa(lp4825
(lp4826
(lp4827
I0
aI51
aI1
aI0
aa(lp4828
I0
aI5
aI57
aI0
aa(lp4829
I36
aI0
aI0
aI18
aa(lp4830
I57
aI0
aI6
aI36
aaaI6
aa(lp4831
(lp4832
(lp4833
I7
aI52
aI4
aI0
aa(lp4834
I0
aI39
aI57
aI0
aa(lp4835
I51
aI0
aI0
aI28
aa(lp4836
I57
aI5
aI0
aI39
aaaI5
aa(lp4837
(lp4838
(lp4839
I1
aI40
aI25
aI1
aa(lp4840
I1
aI44
aI57
aI33
aa(lp4841
I13
aI57
aI22
aI0
aa(lp4842
I57
aI57
aI0
aI57
aaaI2
aa(lp4843
(lp4844
(lp4845
I0
aI0
aI0
aI17
aa(lp4846
I14
aI0
aI0
aI0
aa(lp4847
I0
aI27
aI0
aI0
aa(lp4848
I0
aI0
aI0
aI0
aaaI6
aa(lp4849
(lp4850
(lp4851
I0
aI0
aI35
aI9
aa(lp4852
I33
aI0
aI0
aI0
aa(lp4853
I4
aI0
aI0
aI0
aa(lp4854
I0
aI13
aI6
aI0
aaaI6
aa(lp4855
(lp4856
(lp4857
I23
aI0
aI22
aI27
aa(lp4858
I28
aI0
aI24
aI0
aa(lp4859
I34
aI39
aI42
aI43
aa(lp4860
I57
aI0
aI11
aI10
aaaI6
aa(lp4861
(lp4862
(lp4863
I0
aI9
aI1
aI1
aa(lp4864
I50
aI23
aI20
aI14
aa(lp4865
I8
aI0
aI2
aI37
aa(lp4866
I57
aI0
aI57
aI50
aaaI6
aa(lp4867
(lp4868
(lp4869
I17
aI12
aI7
aI1
aa(lp4870
I0
aI36
aI0
aI26
aa(lp4871
I19
aI0
aI43
aI38
aa(lp4872
I57
aI0
aI57
aI0
aaaI2
aa(lp4873
(lp4874
(lp4875
I14
aI22
aI1
aI0
aa(lp4876
I0
aI14
aI16
aI0
aa(lp4877
I50
aI31
aI0
aI0
aa(lp4878
I57
aI57
aI57
aI3
aaaI4
aa(lp4879
(lp4880
(lp4881
I5
aI0
aI17
aI16
aa(lp4882
I0
aI49
aI45
aI0
aa(lp4883
I0
aI0
aI23
aI0
aa(lp4884
I41
aI0
aI0
aI31
aaaI4
aa(lp4885
(lp4886
(lp4887
I24
aI28
aI0
aI0
aa(lp4888
I25
aI0
aI23
aI0
aa(lp4889
I0
aI0
aI49
aI0
aa(lp4890
I41
aI5
aI14
aI57
aaaI6
aa(lp4891
(lp4892
(lp4893
I57
aI1
aI42
aI11
aa(lp4894
I45
aI13
aI0
aI18
aa(lp4895
I0
aI31
aI9
aI0
aa(lp4896
I0
aI0
aI43
aI57
aaaI2
aa(lp4897
(lp4898
(lp4899
I17
aI6
aI13
aI20
aa(lp4900
I0
aI0
aI27
aI0
aa(lp4901
I0
aI0
aI4
aI0
aa(lp4902
I0
aI0
aI0
aI9
aaaI1
aa(lp4903
(lp4904
(lp4905
I3
aI0
aI0
aI1
aa(lp4906
I0
aI20
aI12
aI0
aa(lp4907
I35
aI40
aI37
aI33
aa(lp4908
I13
aI0
aI17
aI0
aaaI6
aa(lp4909
(lp4910
(lp4911
I7
aI4
aI8
aI0
aa(lp4912
I0
aI27
aI0
aI0
aa(lp4913
I30
aI0
aI57
aI57
aa(lp4914
I57
aI57
aI57
aI5
aaaI2
aa(lp4915
(lp4916
(lp4917
I57
aI0
aI0
aI13
aa(lp4918
I46
aI57
aI57
aI22
aa(lp4919
I28
aI57
aI0
aI5
aa(lp4920
I42
aI0
aI0
aI0
aaaI6
aa(lp4921
(lp4922
(lp4923
I0
aI0
aI25
aI0
aa(lp4924
I0
aI0
aI10
aI14
aa(lp4925
I0
aI0
aI0
aI35
aa(lp4926
I0
aI57
aI57
aI45
aaaI6
aa(lp4927
(lp4928
(lp4929
I7
aI1
aI11
aI40
aa(lp4930
I57
aI0
aI8
aI0
aa(lp4931
I38
aI18
aI27
aI30
aa(lp4932
I0
aI34
aI0
aI0
aaaI3
aa(lp4933
(lp4934
(lp4935
I0
aI2
aI57
aI0
aa(lp4936
I0
aI0
aI17
aI18
aa(lp4937
I28
aI27
aI0
aI15
aa(lp4938
I0
aI11
aI0
aI39
aaaI6
aa(lp4939
(lp4940
(lp4941
I0
aI0
aI17
aI57
aa(lp4942
I9
aI25
aI26
aI7
aa(lp4943
I0
aI44
aI46
aI0
aa(lp4944
I2
aI0
aI0
aI0
aaaI6
aa(lp4945
(lp4946
(lp4947
I9
aI25
aI57
aI12
aa(lp4948
I0
aI0
aI0
aI0
aa(lp4949
I43
aI0
aI48
aI0
aa(lp4950
I19
aI43
aI35
aI1
aaaI4
aa(lp4951
(lp4952
(lp4953
I1
aI5
aI0
aI3
aa(lp4954
I0
aI28
aI31
aI51
aa(lp4955
I0
aI0
aI57
aI0
aa(lp4956
I0
aI0
aI0
aI42
aaaI4
aa(lp4957
(lp4958
(lp4959
I38
aI5
aI21
aI57
aa(lp4960
I0
aI0
aI48
aI57
aa(lp4961
I46
aI31
aI0
aI57
aa(lp4962
I18
aI0
aI7
aI0
aaaI3
aa(lp4963
(lp4964
(lp4965
I3
aI0
aI0
aI12
aa(lp4966
I0
aI27
aI0
aI0
aa(lp4967
I0
aI0
aI0
aI0
aa(lp4968
I0
aI0
aI0
aI0
aaaI6
aa(lp4969
(lp4970
(lp4971
I1
aI19
aI7
aI0
aa(lp4972
I47
aI41
aI14
aI0
aa(lp4973
I0
aI0
aI0
aI29
aa(lp4974
I0
aI0
aI41
aI0
aaaI5
aa(lp4975
(lp4976
(lp4977
I30
aI13
aI1
aI26
aa(lp4978
I0
aI57
aI39
aI14
aa(lp4979
I51
aI0
aI27
aI0
aa(lp4980
I57
aI0
aI57
aI0
aaaI5
aa(lp4981
(lp4982
(lp4983
I0
aI0
aI0
aI36
aa(lp4984
I1
aI57
aI29
aI0
aa(lp4985
I0
aI0
aI44
aI0
aa(lp4986
I57
aI0
aI57
aI13
aaaI6
aa(lp4987
(lp4988
(lp4989
I26
aI0
aI0
aI28
aa(lp4990
I0
aI0
aI17
aI8
aa(lp4991
I0
aI57
aI6
aI6
aa(lp4992
I42
aI0
aI0
aI0
aaaI6
aa(lp4993
(lp4994
(lp4995
I0
aI0
aI0
aI0
aa(lp4996
I16
aI0
aI8
aI1
aa(lp4997
I0
aI0
aI0
aI29
aa(lp4998
I1
aI5
aI40
aI0
aaaI6
aa(lp4999
(lp5000
(lp5001
I57
aI41
aI8
aI4
aa(lp5002
I22
aI0
aI49
aI0
aa(lp5003
I7
aI0
aI0
aI0
aa(lp5004
I0
aI0
aI0
aI19
aaaI1
aa(lp5005
(lp5006
(lp5007
I57
aI22
aI1
aI24
aa(lp5008
I43
aI0
aI16
aI0
aa(lp5009
I31
aI57
aI0
aI0
aa(lp5010
I6
aI57
aI6
aI57
aaaI3
aa(lp5011
(lp5012
(lp5013
I10
aI0
aI2
aI1
aa(lp5014
I29
aI14
aI39
aI0
aa(lp5015
I51
aI57
aI19
aI0
aa(lp5016
I0
aI0
aI39
aI26
aaaI1
aa(lp5017
(lp5018
(lp5019
I5
aI0
aI2
aI0
aa(lp5020
I16
aI0
aI0
aI0
aa(lp5021
I27
aI57
aI28
aI0
aa(lp5022
I42
aI0
aI0
aI23
aaaI6
aa(lp5023
(lp5024
(lp5025
I4
aI0
aI21
aI8
aa(lp5026
I0
aI0
aI0
aI46
aa(lp5027
I0
aI57
aI36
aI5
aa(lp5028
I33
aI39
aI0
aI0
aaaI1
aa(lp5029
(lp5030
(lp5031
I3
aI11
aI45
aI0
aa(lp5032
I57
aI57
aI14
aI0
aa(lp5033
I0
aI57
aI28
aI40
aa(lp5034
I39
aI35
aI0
aI1
aaaI4
aa(lp5035
(lp5036
(lp5037
I0
aI26
aI21
aI27
aa(lp5038
I9
aI18
aI57
aI57
aa(lp5039
I0
aI57
aI35
aI34
aa(lp5040
I0
aI43
aI48
aI0
aaaI4
aa(lp5041
(lp5042
(lp5043
I0
aI57
aI0
aI0
aa(lp5044
I45
aI6
aI0
aI0
aa(lp5045
I57
aI0
aI29
aI7
aa(lp5046
I0
aI0
aI0
aI0
aaaI6
aa(lp5047
(lp5048
(lp5049
I0
aI0
aI0
aI0
aa(lp5050
I0
aI3
aI26
aI0
aa(lp5051
I19
aI48
aI0
aI50
aa(lp5052
I0
aI0
aI31
aI39
aaaI6
aa(lp5053
(lp5054
(lp5055
I29
aI1
aI14
aI0
aa(lp5056
I24
aI0
aI45
aI0
aa(lp5057
I43
aI27
aI11
aI0
aa(lp5058
I39
aI0
aI0
aI45
aaaI6
aa(lp5059
(lp5060
(lp5061
I57
aI0
aI0
aI28
aa(lp5062
I0
aI0
aI31
aI25
aa(lp5063
I3
aI43
aI0
aI0
aa(lp5064
I39
aI0
aI11
aI0
aaaI6
aa(lp5065
(lp5066
(lp5067
I1
aI0
aI27
aI1
aa(lp5068
I0
aI0
aI57
aI12
aa(lp5069
I0
aI51
aI0
aI0
aa(lp5070
I51
aI28
aI0
aI0
aaaI3
aa(lp5071
(lp5072
(lp5073
I0
aI0
aI0
aI43
aa(lp5074
I0
aI0
aI0
aI4
aa(lp5075
I34
aI0
aI2
aI14
aa(lp5076
I0
aI34
aI47
aI39
aaaI6
aa(lp5077
(lp5078
(lp5079
I4
aI14
aI4
aI57
aa(lp5080
I0
aI0
aI57
aI33
aa(lp5081
I0
aI36
aI0
aI57
aa(lp5082
I39
aI43
aI41
aI38
aaaI3
aa(lp5083
(lp5084
(lp5085
I51
aI0
aI9
aI57
aa(lp5086
I17
aI0
aI57
aI26
aa(lp5087
I35
aI0
aI37
aI57
aa(lp5088
I0
aI47
aI0
aI0
aaaI6
aa(lp5089
(lp5090
(lp5091
I0
aI0
aI0
aI0
aa(lp5092
I57
aI48
aI26
aI0
aa(lp5093
I39
aI13
aI0
aI0
aa(lp5094
I0
aI41
aI0
aI0
aaaI6
aa(lp5095
(lp5096
(lp5097
I12
aI28
aI30
aI10
aa(lp5098
I57
aI24
aI0
aI30
aa(lp5099
I0
aI49
aI0
aI0
aa(lp5100
I0
aI0
aI57
aI39
aaaI5
aa(lp5101
(lp5102
(lp5103
I0
aI1
aI7
aI12
aa(lp5104
I28
aI0
aI0
aI0
aa(lp5105
I38
aI0
aI0
aI38
aa(lp5106
I0
aI0
aI45
aI0
aaaI4
aa(lp5107
(lp5108
(lp5109
I0
aI4
aI20
aI0
aa(lp5110
I57
aI20
aI57
aI14
aa(lp5111
I57
aI57
aI27
aI57
aa(lp5112
I9
aI0
aI57
aI57
aaaI6
aa(lp5113
(lp5114
(lp5115
I0
aI0
aI13
aI12
aa(lp5116
I0
aI57
aI0
aI13
aa(lp5117
I45
aI57
aI57
aI57
aa(lp5118
I57
aI39
aI0
aI3
aaaI6
aa(lp5119
(lp5120
(lp5121
I15
aI8
aI12
aI5
aa(lp5122
I57
aI51
aI0
aI28
aa(lp5123
I39
aI30
aI28
aI0
aa(lp5124
I42
aI0
aI0
aI47
aaaI5
aa(lp5125
(lp5126
(lp5127
I0
aI27
aI0
aI12
aa(lp5128
I57
aI57
aI0
aI43
aa(lp5129
I0
aI29
aI0
aI50
aa(lp5130
I0
aI30
aI0
aI50
aaaI6
aa(lp5131
(lp5132
(lp5133
I0
aI45
aI38
aI57
aa(lp5134
I0
aI18
aI16
aI0
aa(lp5135
I57
aI0
aI57
aI57
aa(lp5136
I57
aI57
aI12
aI57
aaaI6
aa(lp5137
(lp5138
(lp5139
I19
aI5
aI28
aI0
aa(lp5140
I0
aI33
aI0
aI14
aa(lp5141
I0
aI0
aI0
aI27
aa(lp5142
I5
aI0
aI0
aI39
aaaI1
aa(lp5143
(lp5144
(lp5145
I5
aI1
aI0
aI42
aa(lp5146
I6
aI0
aI0
aI0
aa(lp5147
I0
aI0
aI0
aI29
aa(lp5148
I42
aI9
aI47
aI0
aaaI6
aa(lp5149
(lp5150
(lp5151
I34
aI16
aI0
aI4
aa(lp5152
I0
aI0
aI34
aI28
aa(lp5153
I46
aI42
aI50
aI0
aa(lp5154
I8
aI0
aI0
aI0
aaaI4
aa(lp5155
(lp5156
(lp5157
I18
aI0
aI22
aI7
aa(lp5158
I0
aI0
aI39
aI0
aa(lp5159
I0
aI0
aI0
aI28
aa(lp5160
I0
aI7
aI0
aI39
aaaI2
aa(lp5161
(lp5162
(lp5163
I0
aI0
aI57
aI0
aa(lp5164
I57
aI0
aI24
aI13
aa(lp5165
I0
aI37
aI0
aI0
aa(lp5166
I22
aI0
aI14
aI0
aaaI6
aa(lp5167
(lp5168
(lp5169
I0
aI57
aI12
aI0
aa(lp5170
I0
aI0
aI0
aI57
aa(lp5171
I0
aI0
aI20
aI28
aa(lp5172
I0
aI57
aI0
aI12
aaaI6
aa(lp5173
(lp5174
(lp5175
I17
aI0
aI1
aI16
aa(lp5176
I25
aI41
aI0
aI20
aa(lp5177
I33
aI2
aI46
aI0
aa(lp5178
I0
aI0
aI51
aI3
aaaI3
aa(lp5179
(lp5180
(lp5181
I0
aI0
aI0
aI20
aa(lp5182
I32
aI0
aI16
aI0
aa(lp5183
I38
aI0
aI0
aI28
aa(lp5184
I47
aI57
aI10
aI0
aaaI6
aa(lp5185
(lp5186
(lp5187
I0
aI0
aI22
aI9
aa(lp5188
I28
aI6
aI6
aI43
aa(lp5189
I40
aI36
aI16
aI57
aa(lp5190
I57
aI0
aI0
aI0
aaaI6
aa(lp5191
(lp5192
(lp5193
I0
aI0
aI0
aI0
aa(lp5194
I0
aI0
aI0
aI0
aa(lp5195
I27
aI0
aI0
aI0
aa(lp5196
I0
aI0
aI0
aI0
aaaI6
aa(lp5197
(lp5198
(lp5199
I0
aI0
aI0
aI0
aa(lp5200
I25
aI17
aI20
aI20
aa(lp5201
I15
aI0
aI35
aI0
aa(lp5202
I43
aI0
aI0
aI27
aaaI6
aa(lp5203
(lp5204
(lp5205
I7
aI42
aI57
aI7
aa(lp5206
I42
aI0
aI39
aI0
aa(lp5207
I29
aI0
aI0
aI57
aa(lp5208
I0
aI8
aI39
aI13
aaaI5
aa(lp5209
(lp5210
(lp5211
I13
aI3
aI12
aI57
aa(lp5212
I39
aI0
aI0
aI23
aa(lp5213
I27
aI0
aI57
aI0
aa(lp5214
I0
aI44
aI0
aI20
aaaI4
aa(lp5215
(lp5216
(lp5217
I0
aI0
aI0
aI0
aa(lp5218
I0
aI31
aI14
aI26
aa(lp5219
I19
aI0
aI0
aI27
aa(lp5220
I0
aI39
aI17
aI7
aaaI6
aa(lp5221
(lp5222
(lp5223
I0
aI0
aI40
aI0
aa(lp5224
I22
aI0
aI47
aI57
aa(lp5225
I4
aI57
aI57
aI0
aa(lp5226
I22
aI0
aI57
aI2
aaaI6
aa(lp5227
(lp5228
(lp5229
I57
aI0
aI29
aI32
aa(lp5230
I0
aI0
aI57
aI57
aa(lp5231
I57
aI57
aI57
aI41
aa(lp5232
I57
aI33
aI57
aI57
aaaI6
aa(lp5233
(lp5234
(lp5235
I0
aI22
aI29
aI1
aa(lp5236
I0
aI0
aI41
aI0
aa(lp5237
I37
aI8
aI0
aI0
aa(lp5238
I0
aI23
aI0
aI39
aaaI6
aa(lp5239
(lp5240
(lp5241
I0
aI0
aI0
aI0
aa(lp5242
I0
aI0
aI0
aI0
aa(lp5243
I0
aI0
aI0
aI0
aa(lp5244
I0
aI0
aI0
aI0
aaaI6
aa(lp5245
(lp5246
(lp5247
I27
aI0
aI0
aI1
aa(lp5248
I38
aI0
aI0
aI0
aa(lp5249
I0
aI0
aI5
aI0
aa(lp5250
I6
aI0
aI41
aI42
aaaI6
aa(lp5251
(lp5252
(lp5253
I18
aI10
aI0
aI17
aa(lp5254
I0
aI0
aI57
aI0
aa(lp5255
I27
aI0
aI0
aI0
aa(lp5256
I42
aI0
aI46
aI0
aaaI1
aa(lp5257
(lp5258
(lp5259
I47
aI20
aI57
aI1
aa(lp5260
I7
aI6
aI57
aI0
aa(lp5261
I57
aI34
aI0
aI27
aa(lp5262
I0
aI57
aI50
aI0
aaaI1
aa(lp5263
(lp5264
(lp5265
I0
aI14
aI12
aI25
aa(lp5266
I43
aI57
aI57
aI6
aa(lp5267
I57
aI2
aI37
aI57
aa(lp5268
I0
aI57
aI0
aI30
aaaI4
aa(lp5269
(lp5270
(lp5271
I0
aI42
aI42
aI43
aa(lp5272
I30
aI57
aI57
aI0
aa(lp5273
I57
aI0
aI0
aI57
aa(lp5274
I0
aI57
aI0
aI0
aaaI5
aa(lp5275
(lp5276
(lp5277
I20
aI4
aI0
aI1
aa(lp5278
I0
aI0
aI14
aI17
aa(lp5279
I0
aI0
aI0
aI15
aa(lp5280
I51
aI57
aI39
aI0
aaaI2
aa(lp5281
(lp5282
(lp5283
I0
aI1
aI57
aI0
aa(lp5284
I16
aI0
aI7
aI0
aa(lp5285
I0
aI12
aI0
aI44
aa(lp5286
I0
aI57
aI19
aI40
aaaI6
aa(lp5287
(lp5288
(lp5289
I26
aI31
aI14
aI57
aa(lp5290
I0
aI0
aI0
aI57
aa(lp5291
I0
aI0
aI16
aI0
aa(lp5292
I0
aI0
aI2
aI0
aaaI3
aa(lp5293
(lp5294
(lp5295
I57
aI23
aI4
aI37
aa(lp5296
I35
aI57
aI0
aI57
aa(lp5297
I6
aI57
aI57
aI57
aa(lp5298
I0
aI20
aI57
aI32
aaaI6
aa(lp5299
(lp5300
(lp5301
I0
aI21
aI57
aI0
aa(lp5302
I57
aI57
aI35
aI0
aa(lp5303
I0
aI0
aI10
aI0
aa(lp5304
I57
aI57
aI45
aI57
aaaI6
aa(lp5305
(lp5306
(lp5307
I35
aI40
aI49
aI0
aa(lp5308
I0
aI18
aI0
aI0
aa(lp5309
I0
aI33
aI2
aI51
aa(lp5310
I15
aI0
aI7
aI39
aaaI1
aa(lp5311
(lp5312
(lp5313
I0
aI0
aI0
aI0
aa(lp5314
I0
aI22
aI0
aI48
aa(lp5315
I27
aI0
aI17
aI4
aa(lp5316
I39
aI0
aI0
aI0
aaaI6
aa(lp5317
(lp5318
(lp5319
I0
aI0
aI15
aI0
aa(lp5320
I23
aI26
aI0
aI0
aa(lp5321
I0
aI10
aI0
aI0
aa(lp5322
I39
aI49
aI0
aI48
aaaI6
aa(lp5323
(lp5324
(lp5325
I57
aI0
aI0
aI0
aa(lp5326
I0
aI0
aI15
aI24
aa(lp5327
I57
aI41
aI33
aI0
aa(lp5328
I11
aI50
aI39
aI8
aaaI6
aa(lp5329
(lp5330
(lp5331
I0
aI0
aI47
aI0
aa(lp5332
I22
aI0
aI34
aI0
aa(lp5333
I0
aI11
aI0
aI0
aa(lp5334
I0
aI0
aI0
aI50
aaaI6
aa(lp5335
(lp5336
(lp5337
I36
aI0
aI0
aI0
aa(lp5338
I0
aI49
aI0
aI0
aa(lp5339
I31
aI0
aI27
aI30
aa(lp5340
I39
aI0
aI49
aI35
aaaI6
aa(lp5341
(lp5342
(lp5343
I0
aI0
aI1
aI0
aa(lp5344
I15
aI0
aI25
aI30
aa(lp5345
I50
aI0
aI0
aI42
aa(lp5346
I0
aI2
aI0
aI0
aaaI6
aa(lp5347
(lp5348
(lp5349
I0
aI25
aI23
aI0
aa(lp5350
I29
aI0
aI39
aI2
aa(lp5351
I20
aI0
aI0
aI10
aa(lp5352
I7
aI0
aI0
aI0
aaaI6
aa(lp5353
(lp5354
(lp5355
I0
aI11
aI7
aI0
aa(lp5356
I0
aI0
aI0
aI0
aa(lp5357
I57
aI35
aI0
aI43
aa(lp5358
I0
aI43
aI18
aI30
aaaI6
aa(lp5359
(lp5360
(lp5361
I16
aI0
aI0
aI27
aa(lp5362
I57
aI20
aI1
aI18
aa(lp5363
I57
aI36
aI29
aI31
aa(lp5364
I46
aI1
aI49
aI39
aaaI6
aa(lp5365
(lp5366
(lp5367
I0
aI30
aI23
aI17
aa(lp5368
I57
aI0
aI26
aI0
aa(lp5369
I57
aI57
aI47
aI50
aa(lp5370
I15
aI0
aI0
aI39
aaaI2
aa(lp5371
(lp5372
(lp5373
I0
aI36
aI16
aI15
aa(lp5374
I57
aI37
aI0
aI57
aa(lp5375
I57
aI57
aI57
aI3
aa(lp5376
I57
aI0
aI17
aI0
aaaI4
aa(lp5377
(lp5378
(lp5379
I0
aI0
aI32
aI57
aa(lp5380
I3
aI0
aI23
aI57
aa(lp5381
I0
aI36
aI0
aI0
aa(lp5382
I0
aI25
aI39
aI6
aaaI6
aa(lp5383
(lp5384
(lp5385
I23
aI28
aI13
aI11
aa(lp5386
I1
aI15
aI57
aI24
aa(lp5387
I0
aI0
aI0
aI6
aa(lp5388
I57
aI24
aI0
aI0
aaaI6
aa(lp5389
(lp5390
(lp5391
I1
aI0
aI3
aI15
aa(lp5392
I37
aI0
aI57
aI57
aa(lp5393
I31
aI44
aI27
aI27
aa(lp5394
I57
aI32
aI57
aI40
aaaI3
aa(lp5395
(lp5396
(lp5397
I0
aI0
aI0
aI0
aa(lp5398
I32
aI0
aI0
aI14
aa(lp5399
I0
aI0
aI38
aI37
aa(lp5400
I0
aI39
aI0
aI0
aaaI6
aa(lp5401
(lp5402
(lp5403
I12
aI10
aI22
aI0
aa(lp5404
I0
aI57
aI0
aI5
aa(lp5405
I13
aI30
aI0
aI0
aa(lp5406
I39
aI46
aI40
aI45
aaaI3
aa(lp5407
(lp5408
(lp5409
I0
aI0
aI0
aI0
aa(lp5410
I0
aI0
aI35
aI33
aa(lp5411
I0
aI0
aI21
aI28
aa(lp5412
I0
aI50
aI0
aI17
aaaI6
aa(lp5413
(lp5414
(lp5415
I0
aI57
aI27
aI0
aa(lp5416
I38
aI22
aI0
aI0
aa(lp5417
I57
aI0
aI0
aI0
aa(lp5418
I0
aI9
aI57
aI57
aaaI6
aa(lp5419
(lp5420
(lp5421
I0
aI0
aI1
aI45
aa(lp5422
I0
aI22
aI14
aI14
aa(lp5423
I57
aI0
aI36
aI0
aa(lp5424
I40
aI11
aI12
aI57
aaaI6
aa(lp5425
(lp5426
(lp5427
I15
aI38
aI0
aI2
aa(lp5428
I0
aI26
aI9
aI57
aa(lp5429
I57
aI27
aI33
aI57
aa(lp5430
I57
aI57
aI6
aI57
aaaI5
aa(lp5431
(lp5432
(lp5433
I32
aI0
aI19
aI57
aa(lp5434
I0
aI57
aI57
aI30
aa(lp5435
I31
aI0
aI57
aI0
aa(lp5436
I0
aI57
aI8
aI57
aaaI6
aa(lp5437
(lp5438
(lp5439
I28
aI57
aI19
aI0
aa(lp5440
I57
aI57
aI0
aI0
aa(lp5441
I0
aI57
aI0
aI0
aa(lp5442
I8
aI0
aI39
aI38
aaaI6
aa(lp5443
(lp5444
(lp5445
I13
aI1
aI9
aI0
aa(lp5446
I0
aI0
aI14
aI20
aa(lp5447
I57
aI38
aI0
aI50
aa(lp5448
I39
aI39
aI5
aI26
aaaI2
aa(lp5449
(lp5450
(lp5451
I2
aI0
aI29
aI16
aa(lp5452
I0
aI0
aI17
aI0
aa(lp5453
I57
aI0
aI0
aI33
aa(lp5454
I0
aI0
aI12
aI48
aaaI4
aa(lp5455
(lp5456
(lp5457
I0
aI1
aI42
aI22
aa(lp5458
I25
aI25
aI57
aI0
aa(lp5459
I0
aI35
aI0
aI48
aa(lp5460
I57
aI0
aI49
aI0
aaaI1
aa(lp5461
(lp5462
(lp5463
I24
aI0
aI21
aI22
aa(lp5464
I57
aI6
aI0
aI14
aa(lp5465
I37
aI0
aI0
aI57
aa(lp5466
I0
aI42
aI0
aI43
aaaI3
aa(lp5467
(lp5468
(lp5469
I1
aI0
aI40
aI10
aa(lp5470
I57
aI0
aI3
aI20
aa(lp5471
I42
aI57
aI57
aI57
aa(lp5472
I0
aI45
aI0
aI57
aaaI3
aa(lp5473
(lp5474
(lp5475
I44
aI0
aI7
aI4
aa(lp5476
I28
aI37
aI38
aI0
aa(lp5477
I34
aI0
aI33
aI0
aa(lp5478
I23
aI0
aI0
aI0
aaaI1
aa(lp5479
(lp5480
(lp5481
I12
aI0
aI29
aI1
aa(lp5482
I0
aI15
aI0
aI0
aa(lp5483
I27
aI57
aI0
aI0
aa(lp5484
I0
aI1
aI18
aI57
aaaI2
aa(lp5485
(lp5486
(lp5487
I0
aI12
aI2
aI2
aa(lp5488
I57
aI57
aI21
aI33
aa(lp5489
I57
aI57
aI0
aI0
aa(lp5490
I57
aI57
aI28
aI57
aaaI2
aa(lp5491
(lp5492
(lp5493
I12
aI0
aI1
aI38
aa(lp5494
I18
aI22
aI57
aI57
aa(lp5495
I0
aI35
aI27
aI27
aa(lp5496
I39
aI0
aI45
aI0
aaaI1
aa(lp5497
(lp5498
(lp5499
I26
aI4
aI7
aI4
aa(lp5500
I0
aI21
aI57
aI57
aa(lp5501
I27
aI0
aI45
aI0
aa(lp5502
I0
aI0
aI24
aI0
aaaI6
aa(lp5503
(lp5504
(lp5505
I0
aI11
aI0
aI21
aa(lp5506
I0
aI0
aI0
aI34
aa(lp5507
I16
aI0
aI17
aI38
aa(lp5508
I42
aI0
aI47
aI0
aaaI6
aa(lp5509
(lp5510
(lp5511
I29
aI18
aI18
aI0
aa(lp5512
I0
aI21
aI0
aI39
aa(lp5513
I0
aI57
aI0
aI41
aa(lp5514
I0
aI0
aI37
aI0
aaaI2
aa(lp5515
(lp5516
(lp5517
I1
aI0
aI21
aI7
aa(lp5518
I42
aI14
aI14
aI0
aa(lp5519
I0
aI57
aI0
aI51
aa(lp5520
I0
aI0
aI39
aI0
aaaI2
aa(lp5521
(lp5522
(lp5523
I0
aI17
aI42
aI5
aa(lp5524
I0
aI3
aI0
aI0
aa(lp5525
I27
aI0
aI0
aI0
aa(lp5526
I29
aI57
aI7
aI0
aaaI6
aa(lp5527
(lp5528
(lp5529
I32
aI0
aI0
aI4
aa(lp5530
I40
aI0
aI0
aI0
aa(lp5531
I0
aI50
aI0
aI0
aa(lp5532
I0
aI57
aI0
aI47
aaaI6
aa(lp5533
(lp5534
(lp5535
I17
aI28
aI0
aI4
aa(lp5536
I14
aI0
aI0
aI0
aa(lp5537
I45
aI0
aI0
aI36
aa(lp5538
I0
aI8
aI0
aI42
aaaI6
aa(lp5539
(lp5540
(lp5541
I12
aI0
aI36
aI10
aa(lp5542
I0
aI0
aI0
aI41
aa(lp5543
I0
aI31
aI17
aI0
aa(lp5544
I0
aI0
aI57
aI13
aaaI3
aa(lp5545
(lp5546
(lp5547
I0
aI0
aI0
aI49
aa(lp5548
I0
aI0
aI57
aI26
aa(lp5549
I46
aI0
aI0
aI0
aa(lp5550
I0
aI7
aI57
aI31
aaaI6
aa(lp5551
(lp5552
(lp5553
I23
aI0
aI12
aI1
aa(lp5554
I18
aI0
aI14
aI0
aa(lp5555
I16
aI0
aI44
aI51
aa(lp5556
I57
aI57
aI43
aI41
aaaI1
aa(lp5557
(lp5558
(lp5559
I8
aI12
aI0
aI8
aa(lp5560
I0
aI25
aI17
aI0
aa(lp5561
I28
aI27
aI36
aI3
aa(lp5562
I0
aI0
aI42
aI0
aaaI3
aa(lp5563
(lp5564
(lp5565
I18
aI0
aI1
aI0
aa(lp5566
I0
aI0
aI0
aI47
aa(lp5567
I0
aI33
aI4
aI0
aa(lp5568
I0
aI13
aI0
aI0
aaaI6
aa(lp5569
(lp5570
(lp5571
I28
aI0
aI57
aI29
aa(lp5572
I21
aI0
aI44
aI0
aa(lp5573
I45
aI19
aI0
aI0
aa(lp5574
I25
aI39
aI57
aI1
aaaI6
aa(lp5575
(lp5576
(lp5577
I13
aI34
aI57
aI14
aa(lp5578
I0
aI57
aI29
aI8
aa(lp5579
I0
aI0
aI31
aI41
aa(lp5580
I0
aI46
aI0
aI47
aaaI2
aa(lp5581
(lp5582
(lp5583
I0
aI43
aI0
aI23
aa(lp5584
I43
aI57
aI39
aI57
aa(lp5585
I0
aI57
aI49
aI9
aa(lp5586
I0
aI46
aI0
aI57
aaaI6
aa(lp5587
(lp5588
(lp5589
I11
aI0
aI10
aI22
aa(lp5590
I57
aI57
aI17
aI57
aa(lp5591
I0
aI57
aI31
aI0
aa(lp5592
I5
aI49
aI47
aI57
aaaI3
aa(lp5593
(lp5594
(lp5595
I30
aI14
aI3
aI5
aa(lp5596
I57
aI0
aI0
aI0
aa(lp5597
I40
aI57
aI57
aI27
aa(lp5598
I0
aI0
aI42
aI0
aaaI5
aa(lp5599
(lp5600
(lp5601
I0
aI0
aI0
aI2
aa(lp5602
I0
aI0
aI0
aI30
aa(lp5603
I0
aI48
aI36
aI27
aa(lp5604
I0
aI0
aI0
aI0
aaaI6
aa(lp5605
(lp5606
(lp5607
I0
aI0
aI35
aI0
aa(lp5608
I0
aI39
aI0
aI0
aa(lp5609
I0
aI19
aI57
aI8
aa(lp5610
I0
aI39
aI11
aI57
aaaI6
aa(lp5611
(lp5612
(lp5613
I0
aI10
aI0
aI0
aa(lp5614
I57
aI57
aI26
aI3
aa(lp5615
I19
aI30
aI0
aI0
aa(lp5616
I42
aI50
aI36
aI57
aaaI6
aa(lp5617
(lp5618
(lp5619
I0
aI44
aI0
aI38
aa(lp5620
I57
aI57
aI44
aI57
aa(lp5621
I0
aI57
aI0
aI24
aa(lp5622
I57
aI46
aI57
aI57
aaaI6
aa(lp5623
(lp5624
(lp5625
I0
aI0
aI0
aI10
aa(lp5626
I57
aI57
aI2
aI57
aa(lp5627
I0
aI57
aI0
aI31
aa(lp5628
I57
aI8
aI57
aI57
aaaI6
aa(lp5629
(lp5630
(lp5631
I5
aI38
aI0
aI0
aa(lp5632
I0
aI0
aI0
aI6
aa(lp5633
I0
aI24
aI57
aI0
aa(lp5634
I28
aI0
aI19
aI51
aaaI6
aa(lp5635
(lp5636
(lp5637
I2
aI0
aI26
aI2
aa(lp5638
I15
aI30
aI0
aI57
aa(lp5639
I43
aI8
aI0
aI34
aa(lp5640
I16
aI16
aI12
aI0
aaaI1
aa(lp5641
(lp5642
(lp5643
I13
aI16
aI2
aI57
aa(lp5644
I0
aI57
aI0
aI39
aa(lp5645
I0
aI0
aI34
aI34
aa(lp5646
I0
aI39
aI42
aI4
aaaI3
aa(lp5647
(lp5648
(lp5649
I0
aI5
aI9
aI12
aa(lp5650
I47
aI30
aI14
aI14
aa(lp5651
I0
aI0
aI0
aI49
aa(lp5652
I0
aI11
aI6
aI22
aaaI1
aa(lp5653
(lp5654
(lp5655
I44
aI35
aI57
aI1
aa(lp5656
I0
aI14
aI0
aI57
aa(lp5657
I57
aI0
aI0
aI0
aa(lp5658
I0
aI19
aI57
aI9
aaaI5
aa(lp5659
(lp5660
(lp5661
I38
aI22
aI57
aI0
aa(lp5662
I0
aI0
aI30
aI57
aa(lp5663
I57
aI0
aI0
aI25
aa(lp5664
I39
aI14
aI57
aI6
aaaI6
aa(lp5665
(lp5666
(lp5667
I51
aI0
aI40
aI49
aa(lp5668
I0
aI0
aI0
aI0
aa(lp5669
I19
aI0
aI0
aI38
aa(lp5670
I0
aI0
aI0
aI37
aaaI6
aa(lp5671
(lp5672
(lp5673
I30
aI0
aI1
aI5
aa(lp5674
I43
aI0
aI17
aI14
aa(lp5675
I36
aI0
aI31
aI57
aa(lp5676
I0
aI0
aI11
aI49
aaaI1
aa(lp5677
(lp5678
(lp5679
I0
aI7
aI1
aI8
aa(lp5680
I27
aI45
aI0
aI14
aa(lp5681
I51
aI0
aI35
aI57
aa(lp5682
I0
aI39
aI32
aI0
aaaI6
aa(lp5683
(lp5684
(lp5685
I57
aI0
aI17
aI0
aa(lp5686
I41
aI16
aI0
aI7
aa(lp5687
I57
aI39
aI39
aI18
aa(lp5688
I46
aI57
aI0
aI0
aaaI6
aa(lp5689
(lp5690
(lp5691
I1
aI0
aI21
aI0
aa(lp5692
I41
aI33
aI26
aI25
aa(lp5693
I57
aI43
aI27
aI44
aa(lp5694
I45
aI0
aI0
aI0
aaaI6
aa(lp5695
(lp5696
(lp5697
I0
aI0
aI0
aI0
aa(lp5698
I0
aI0
aI0
aI18
aa(lp5699
I0
aI33
aI0
aI0
aa(lp5700
I0
aI0
aI0
aI0
aaaI6
aa(lp5701
(lp5702
(lp5703
I0
aI0
aI28
aI0
aa(lp5704
I0
aI0
aI9
aI0
aa(lp5705
I57
aI0
aI29
aI37
aa(lp5706
I39
aI10
aI39
aI57
aaaI6
aa(lp5707
(lp5708
(lp5709
I0
aI44
aI37
aI0
aa(lp5710
I57
aI11
aI0
aI32
aa(lp5711
I57
aI57
aI42
aI57
aa(lp5712
I0
aI57
aI14
aI57
aaaI6
aa(lp5713
(lp5714
(lp5715
I9
aI36
aI6
aI0
aa(lp5716
I0
aI0
aI25
aI0
aa(lp5717
I57
aI10
aI30
aI38
aa(lp5718
I57
aI40
aI0
aI43
aaaI6
aa(lp5719
(lp5720
(lp5721
I39
aI13
aI57
aI38
aa(lp5722
I30
aI0
aI0
aI32
aa(lp5723
I27
aI0
aI57
aI57
aa(lp5724
I0
aI0
aI11
aI39
aaaI4
aa(lp5725
(lp5726
(lp5727
I9
aI0
aI1
aI0
aa(lp5728
I0
aI0
aI0
aI28
aa(lp5729
I35
aI27
aI0
aI0
aa(lp5730
I39
aI57
aI0
aI49
aaaI6
aa(lp5731
(lp5732
(lp5733
I0
aI0
aI15
aI6
aa(lp5734
I34
aI0
aI0
aI0
aa(lp5735
I0
aI7
aI0
aI0
aa(lp5736
I41
aI57
aI0
aI8
aaaI6
aa(lp5737
(lp5738
(lp5739
I30
aI0
aI57
aI0
aa(lp5740
I14
aI0
aI39
aI39
aa(lp5741
I0
aI5
aI31
aI0
aa(lp5742
I0
aI0
aI57
aI17
aaaI6
aa(lp5743
(lp5744
(lp5745
I0
aI0
aI57
aI0
aa(lp5746
I17
aI17
aI0
aI0
aa(lp5747
I0
aI27
aI38
aI42
aa(lp5748
I12
aI0
aI57
aI0
aaaI6
aa(lp5749
(lp5750
(lp5751
I36
aI1
aI32
aI0
aa(lp5752
I29
aI11
aI35
aI0
aa(lp5753
I0
aI27
aI0
aI0
aa(lp5754
I32
aI46
aI43
aI0
aaaI5
aa(lp5755
(lp5756
(lp5757
I0
aI1
aI29
aI9
aa(lp5758
I0
aI0
aI1
aI0
aa(lp5759
I0
aI0
aI10
aI24
aa(lp5760
I0
aI0
aI12
aI0
aaaI2
aa(lp5761
(lp5762
(lp5763
I0
aI0
aI24
aI1
aa(lp5764
I57
aI25
aI6
aI57
aa(lp5765
I44
aI42
aI50
aI0
aa(lp5766
I39
aI0
aI0
aI0
aaaI6
aa(lp5767
(lp5768
(lp5769
I0
aI16
aI45
aI21
aa(lp5770
I0
aI0
aI0
aI0
aa(lp5771
I0
aI0
aI36
aI0
aa(lp5772
I8
aI7
aI19
aI0
aaaI3
aa(lp5773
(lp5774
(lp5775
I38
aI11
aI2
aI0
aa(lp5776
I44
aI6
aI24
aI0
aa(lp5777
I0
aI0
aI10
aI48
aa(lp5778
I0
aI39
aI25
aI24
aaaI2
aa(lp5779
(lp5780
(lp5781
I0
aI15
aI1
aI35
aa(lp5782
I57
aI0
aI46
aI57
aa(lp5783
I34
aI57
aI34
aI57
aa(lp5784
I18
aI0
aI57
aI0
aaaI2
aa(lp5785
(lp5786
(lp5787
I0
aI0
aI1
aI26
aa(lp5788
I48
aI0
aI0
aI57
aa(lp5789
I57
aI0
aI37
aI6
aa(lp5790
I39
aI57
aI2
aI0
aaaI6
aa(lp5791
(lp5792
(lp5793
I30
aI47
aI24
aI57
aa(lp5794
I57
aI0
aI4
aI17
aa(lp5795
I57
aI0
aI44
aI57
aa(lp5796
I31
aI57
aI5
aI47
aaaI5
aa(lp5797
(lp5798
(lp5799
I38
aI15
aI0
aI16
aa(lp5800
I9
aI57
aI57
aI57
aa(lp5801
I35
aI57
aI36
aI27
aa(lp5802
I0
aI57
aI2
aI57
aaaI6
aa(lp5803
(lp5804
(lp5805
I4
aI3
aI32
aI1
aa(lp5806
I0
aI14
aI0
aI18
aa(lp5807
I0
aI26
aI36
aI0
aa(lp5808
I0
aI47
aI0
aI0
aaaI6
aa(lp5809
(lp5810
(lp5811
I0
aI17
aI10
aI2
aa(lp5812
I14
aI22
aI0
aI57
aa(lp5813
I0
aI0
aI0
aI29
aa(lp5814
I0
aI39
aI0
aI3
aaaI1
aa(lp5815
(lp5816
(lp5817
I42
aI0
aI9
aI0
aa(lp5818
I0
aI14
aI57
aI57
aa(lp5819
I27
aI57
aI20
aI41
aa(lp5820
I14
aI0
aI0
aI57
aaaI6
aa(lp5821
(lp5822
(lp5823
I7
aI21
aI19
aI57
aa(lp5824
I0
aI14
aI14
aI0
aa(lp5825
I57
aI0
aI27
aI57
aa(lp5826
I0
aI57
aI51
aI0
aaaI2
aa(lp5827
(lp5828
(lp5829
I23
aI8
aI47
aI57
aa(lp5830
I57
aI50
aI57
aI0
aa(lp5831
I57
aI17
aI57
aI57
aa(lp5832
I0
aI0
aI57
aI33
aaaI1
aa(lp5833
(lp5834
(lp5835
I39
aI57
aI33
aI17
aa(lp5836
I0
aI0
aI4
aI57
aa(lp5837
I10
aI0
aI0
aI0
aa(lp5838
I7
aI43
aI0
aI57
aaaI5
aa(lp5839
(lp5840
(lp5841
I0
aI0
aI9
aI0
aa(lp5842
I0
aI43
aI0
aI57
aa(lp5843
I0
aI0
aI49
aI44
aa(lp5844
I24
aI0
aI57
aI57
aaaI6
aa(lp5845
(lp5846
(lp5847
I0
aI18
aI0
aI0
aa(lp5848
I0
aI57
aI0
aI57
aa(lp5849
I20
aI0
aI0
aI0
aa(lp5850
I3
aI0
aI57
aI57
aaaI6
aa(lp5851
(lp5852
(lp5853
I0
aI23
aI12
aI16
aa(lp5854
I45
aI57
aI40
aI57
aa(lp5855
I22
aI0
aI0
aI0
aa(lp5856
I57
aI0
aI57
aI57
aaaI6
aa(lp5857
(lp5858
(lp5859
I28
aI41
aI0
aI1
aa(lp5860
I0
aI14
aI16
aI48
aa(lp5861
I0
aI0
aI0
aI25
aa(lp5862
I0
aI0
aI6
aI17
aaaI6
aa(lp5863
(lp5864
(lp5865
I1
aI21
aI43
aI57
aa(lp5866
I0
aI44
aI14
aI0
aa(lp5867
I22
aI0
aI0
aI57
aa(lp5868
I7
aI0
aI0
aI0
aaaI6
aa(lp5869
(lp5870
(lp5871
I49
aI0
aI0
aI30
aa(lp5872
I0
aI0
aI0
aI20
aa(lp5873
I41
aI0
aI0
aI0
aa(lp5874
I31
aI0
aI0
aI4
aaaI6
aa(lp5875
(lp5876
(lp5877
I2
aI8
aI1
aI57
aa(lp5878
I0
aI32
aI37
aI0
aa(lp5879
I0
aI27
aI0
aI0
aa(lp5880
I0
aI37
aI46
aI5
aaaI1
aa(lp5881
(lp5882
(lp5883
I30
aI0
aI15
aI57
aa(lp5884
I0
aI0
aI41
aI14
aa(lp5885
I49
aI40
aI51
aI0
aa(lp5886
I31
aI0
aI0
aI0
aaaI6
aa(lp5887
(lp5888
(lp5889
I0
aI33
aI1
aI10
aa(lp5890
I0
aI0
aI0
aI0
aa(lp5891
I36
aI28
aI50
aI0
aa(lp5892
I0
aI0
aI47
aI0
aaaI1
aa(lp5893
(lp5894
(lp5895
I57
aI15
aI26
aI47
aa(lp5896
I23
aI0
aI20
aI26
aa(lp5897
I0
aI29
aI57
aI38
aa(lp5898
I57
aI39
aI57
aI49
aaaI3
aa(lp5899
(lp5900
(lp5901
I0
aI1
aI7
aI7
aa(lp5902
I42
aI39
aI0
aI17
aa(lp5903
I27
aI3
aI0
aI0
aa(lp5904
I10
aI0
aI0
aI37
aaaI4
aa(lp5905
(lp5906
(lp5907
I30
aI0
aI30
aI57
aa(lp5908
I57
aI57
aI18
aI0
aa(lp5909
I57
aI0
aI2
aI0
aa(lp5910
I30
aI57
aI0
aI0
aaaI6
aa(lp5911
(lp5912
(lp5913
I3
aI45
aI42
aI57
aa(lp5914
I57
aI57
aI13
aI0
aa(lp5915
I57
aI0
aI0
aI32
aa(lp5916
I1
aI57
aI57
aI39
aaaI4
aa(lp5917
(lp5918
(lp5919
I5
aI0
aI16
aI0
aa(lp5920
I6
aI57
aI57
aI9
aa(lp5921
I57
aI0
aI28
aI6
aa(lp5922
I33
aI19
aI57
aI57
aaaI6
aa(lp5923
(lp5924
(lp5925
I0
aI0
aI0
aI9
aa(lp5926
I25
aI57
aI57
aI48
aa(lp5927
I57
aI0
aI31
aI39
aa(lp5928
I57
aI39
aI57
aI57
aaaI6
aa(lp5929
(lp5930
(lp5931
I0
aI0
aI0
aI52
aa(lp5932
I0
aI9
aI0
aI0
aa(lp5933
I0
aI27
aI23
aI14
aa(lp5934
I0
aI22
aI0
aI0
aaaI6
aa(lp5935
(lp5936
(lp5937
I21
aI0
aI0
aI0
aa(lp5938
I10
aI0
aI20
aI2
aa(lp5939
I32
aI57
aI57
aI39
aa(lp5940
I0
aI0
aI0
aI46
aaaI6
aa(lp5941
(lp5942
(lp5943
I0
aI0
aI29
aI0
aa(lp5944
I16
aI21
aI18
aI0
aa(lp5945
I11
aI57
aI57
aI57
aa(lp5946
I39
aI22
aI0
aI9
aaaI6
aa(lp5947
(lp5948
(lp5949
I0
aI0
aI29
aI12
aa(lp5950
I0
aI44
aI0
aI13
aa(lp5951
I24
aI57
aI57
aI57
aa(lp5952
I7
aI38
aI0
aI39
aaaI6
aa(lp5953
(lp5954
(lp5955
I0
aI52
aI0
aI0
aa(lp5956
I26
aI57
aI0
aI57
aa(lp5957
I49
aI57
aI57
aI57
aa(lp5958
I13
aI57
aI0
aI57
aaaI6
aa(lp5959
(lp5960
(lp5961
I14
aI57
aI0
aI52
aa(lp5962
I40
aI57
aI16
aI57
aa(lp5963
I34
aI57
aI57
aI57
aa(lp5964
I29
aI57
aI0
aI57
aaaI6
aa(lp5965
(lp5966
(lp5967
I37
aI11
aI0
aI1
aa(lp5968
I45
aI0
aI0
aI14
aa(lp5969
I0
aI0
aI0
aI0
aa(lp5970
I0
aI0
aI0
aI48
aaaI4
aa(lp5971
(lp5972
(lp5973
I1
aI57
aI0
aI38
aa(lp5974
I57
aI57
aI1
aI39
aa(lp5975
I0
aI57
aI57
aI39
aa(lp5976
I0
aI0
aI57
aI26
aaaI6
aa(lp5977
(lp5978
(lp5979
I0
aI1
aI0
aI0
aa(lp5980
I0
aI0
aI23
aI0
aa(lp5981
I9
aI0
aI57
aI0
aa(lp5982
I0
aI0
aI27
aI9
aaaI6
aa(lp5983
(lp5984
(lp5985
I5
aI27
aI2
aI0
aa(lp5986
I0
aI0
aI14
aI0
aa(lp5987
I57
aI0
aI57
aI0
aa(lp5988
I11
aI9
aI0
aI37
aaaI1
aa(lp5989
(lp5990
(lp5991
I1
aI57
aI37
aI0
aa(lp5992
I57
aI57
aI0
aI0
aa(lp5993
I47
aI0
aI30
aI57
aa(lp5994
I24
aI57
aI7
aI0
aaaI6
aa(lp5995
(lp5996
(lp5997
I4
aI14
aI0
aI0
aa(lp5998
I48
aI0
aI0
aI0
aa(lp5999
I27
aI0
aI57
aI0
aa(lp6000
I41
aI39
aI0
aI0
aaaI6
aa(lp6001
(lp6002
(lp6003
I41
aI0
aI1
aI21
aa(lp6004
I57
aI0
aI0
aI28
aa(lp6005
I14
aI57
aI57
aI15
aa(lp6006
I57
aI2
aI57
aI57
aaaI1
aa(lp6007
(lp6008
(lp6009
I42
aI0
aI1
aI21
aa(lp6010
I57
aI0
aI0
aI28
aa(lp6011
I19
aI57
aI57
aI15
aa(lp6012
I57
aI8
aI57
aI57
aaaI2
aa(lp6013
(lp6014
(lp6015
I0
aI49
aI0
aI0
aa(lp6016
I0
aI0
aI0
aI17
aa(lp6017
I0
aI0
aI35
aI19
aa(lp6018
I26
aI5
aI41
aI57
aaaI6
aa(lp6019
(lp6020
(lp6021
I0
aI8
aI22
aI17
aa(lp6022
I57
aI0
aI23
aI22
aa(lp6023
I0
aI34
aI0
aI0
aa(lp6024
I0
aI18
aI0
aI0
aaaI1
aa(lp6025
(lp6026
(lp6027
I0
aI57
aI0
aI23
aa(lp6028
I57
aI57
aI20
aI57
aa(lp6029
I57
aI57
aI44
aI7
aa(lp6030
I0
aI35
aI0
aI0
aaaI6
aa(lp6031
(lp6032
(lp6033
I10
aI19
aI0
aI1
aa(lp6034
I0
aI57
aI50
aI57
aa(lp6035
I27
aI29
aI39
aI3
aa(lp6036
I31
aI57
aI0
aI0
aaaI5
aa(lp6037
(lp6038
(lp6039
I8
aI13
aI4
aI57
aa(lp6040
I57
aI57
aI51
aI57
aa(lp6041
I0
aI0
aI57
aI34
aa(lp6042
I49
aI57
aI0
aI57
aaaI5
aa(lp6043
(lp6044
(lp6045
I7
aI21
aI18
aI10
aa(lp6046
I0
aI57
aI0
aI43
aa(lp6047
I22
aI0
aI30
aI0
aa(lp6048
I0
aI32
aI39
aI45
aaaI6
aa(lp6049
(lp6050
(lp6051
I7
aI9
aI22
aI57
aa(lp6052
I30
aI57
aI0
aI16
aa(lp6053
I0
aI42
aI28
aI0
aa(lp6054
I0
aI0
aI4
aI5
aaaI4
aa(lp6055
(lp6056
(lp6057
I0
aI0
aI1
aI29
aa(lp6058
I26
aI24
aI0
aI14
aa(lp6059
I16
aI0
aI50
aI0
aa(lp6060
I0
aI48
aI32
aI0
aaaI6
aa(lp6061
(lp6062
(lp6063
I7
aI0
aI1
aI29
aa(lp6064
I26
aI0
aI0
aI29
aa(lp6065
I23
aI0
aI50
aI0
aa(lp6066
I0
aI0
aI36
aI0
aaaI2
aa(lp6067
(lp6068
(lp6069
I17
aI2
aI31
aI0
aa(lp6070
I0
aI31
aI0
aI0
aa(lp6071
I10
aI29
aI0
aI41
aa(lp6072
I9
aI0
aI45
aI11
aaaI1
aa(lp6073
(lp6074
(lp6075
I46
aI0
aI37
aI21
aa(lp6076
I0
aI31
aI0
aI0
aa(lp6077
I0
aI0
aI29
aI0
aa(lp6078
I0
aI0
aI8
aI57
aaaI1
aa(lp6079
(lp6080
(lp6081
I8
aI43
aI0
aI31
aa(lp6082
I57
aI36
aI57
aI0
aa(lp6083
I1
aI57
aI0
aI1
aa(lp6084
I0
aI57
aI19
aI0
aaaI5
aa(lp6085
(lp6086
(lp6087
I0
aI18
aI57
aI5
aa(lp6088
I0
aI0
aI35
aI16
aa(lp6089
I45
aI42
aI0
aI0
aa(lp6090
I0
aI0
aI0
aI0
aaaI6
aa(lp6091
(lp6092
(lp6093
I41
aI21
aI5
aI14
aa(lp6094
I33
aI0
aI0
aI47
aa(lp6095
I0
aI0
aI0
aI0
aa(lp6096
I6
aI0
aI33
aI0
aaaI1
aa(lp6097
(lp6098
(lp6099
I21
aI7
aI3
aI0
aa(lp6100
I36
aI23
aI0
aI0
aa(lp6101
I0
aI0
aI12
aI0
aa(lp6102
I0
aI0
aI46
aI46
aaaI1
aa(lp6103
(lp6104
(lp6105
I57
aI0
aI2
aI9
aa(lp6106
I14
aI0
aI28
aI6
aa(lp6107
I46
aI33
aI57
aI37
aa(lp6108
I0
aI0
aI0
aI0
aaaI6
aa(lp6109
(lp6110
(lp6111
I0
aI15
aI24
aI5
aa(lp6112
I17
aI36
aI57
aI14
aa(lp6113
I51
aI33
aI28
aI57
aa(lp6114
I0
aI0
aI0
aI0
aaaI1
aa(lp6115
(lp6116
(lp6117
I8
aI57
aI21
aI0
aa(lp6118
I22
aI57
aI57
aI10
aa(lp6119
I0
aI0
aI0
aI57
aa(lp6120
I0
aI57
aI11
aI32
aaaI6
aa(lp6121
(lp6122
(lp6123
I0
aI18
aI35
aI3
aa(lp6124
I0
aI43
aI0
aI0
aa(lp6125
I0
aI27
aI0
aI0
aa(lp6126
I0
aI39
aI0
aI0
aaaI6
aa(lp6127
(lp6128
(lp6129
I0
aI0
aI57
aI0
aa(lp6130
I27
aI17
aI57
aI0
aa(lp6131
I57
aI57
aI12
aI57
aa(lp6132
I0
aI0
aI0
aI50
aaaI6
aa(lp6133
(lp6134
(lp6135
I0
aI20
aI33
aI2
aa(lp6136
I0
aI29
aI4
aI25
aa(lp6137
I0
aI0
aI0
aI0
aa(lp6138
I45
aI42
aI0
aI13
aaaI2
aa(lp6139
(lp6140
(lp6141
I5
aI0
aI0
aI0
aa(lp6142
I0
aI22
aI0
aI57
aa(lp6143
I45
aI57
aI27
aI57
aa(lp6144
I0
aI57
aI0
aI12
aaaI6
aa(lp6145
(lp6146
(lp6147
I0
aI0
aI0
aI0
aa(lp6148
I0
aI0
aI17
aI57
aa(lp6149
I28
aI57
aI0
aI57
aa(lp6150
I40
aI57
aI11
aI41
aaaI6
aa(lp6151
(lp6152
(lp6153
I0
aI0
aI43
aI0
aa(lp6154
I0
aI47
aI14
aI0
aa(lp6155
I0
aI26
aI8
aI0
aa(lp6156
I39
aI42
aI3
aI0
aaaI6
aa(lp6157
(lp6158
(lp6159
I0
aI0
aI0
aI24
aa(lp6160
I9
aI57
aI0
aI57
aa(lp6161
I0
aI31
aI57
aI0
aa(lp6162
I0
aI47
aI37
aI0
aaaI6
aa(lp6163
(lp6164
(lp6165
I57
aI25
aI1
aI11
aa(lp6166
I0
aI43
aI0
aI0
aa(lp6167
I6
aI5
aI40
aI27
aa(lp6168
I57
aI0
aI39
aI50
aaaI4
aa(lp6169
(lp6170
(lp6171
I57
aI8
aI8
aI29
aa(lp6172
I0
aI0
aI18
aI0
aa(lp6173
I34
aI0
aI42
aI0
aa(lp6174
I57
aI0
aI0
aI0
aaaI6
aa(lp6175
(lp6176
(lp6177
I33
aI1
aI3
aI0
aa(lp6178
I14
aI22
aI0
aI0
aa(lp6179
I0
aI0
aI35
aI0
aa(lp6180
I0
aI9
aI50
aI51
aaaI4
aa(lp6181
(lp6182
(lp6183
I0
aI0
aI34
aI1
aa(lp6184
I0
aI0
aI0
aI14
aa(lp6185
I0
aI33
aI0
aI30
aa(lp6186
I0
aI39
aI39
aI0
aaaI6
aa(lp6187
(lp6188
(lp6189
I1
aI1
aI14
aI1
aa(lp6190
I57
aI0
aI57
aI34
aa(lp6191
I5
aI44
aI57
aI57
aa(lp6192
I57
aI0
aI0
aI0
aaaI6
aa(lp6193
(lp6194
(lp6195
I0
aI19
aI0
aI0
aa(lp6196
I57
aI57
aI57
aI26
aa(lp6197
I44
aI57
aI57
aI57
aa(lp6198
I57
aI49
aI39
aI57
aaaI6
aa(lp6199
(lp6200
(lp6201
I0
aI5
aI20
aI29
aa(lp6202
I22
aI11
aI0
aI32
aa(lp6203
I31
aI49
aI0
aI0
aa(lp6204
I0
aI0
aI18
aI0
aaaI3
aa(lp6205
(lp6206
(lp6207
I8
aI30
aI57
aI28
aa(lp6208
I0
aI0
aI0
aI27
aa(lp6209
I44
aI0
aI27
aI0
aa(lp6210
I41
aI2
aI57
aI57
aaaI2
aa(lp6211
(lp6212
(lp6213
I0
aI0
aI57
aI0
aa(lp6214
I42
aI0
aI0
aI27
aa(lp6215
I57
aI57
aI20
aI16
aa(lp6216
I0
aI4
aI57
aI0
aaaI6
aa(lp6217
(lp6218
(lp6219
I0
aI0
aI57
aI0
aa(lp6220
I3
aI0
aI0
aI35
aa(lp6221
I57
aI57
aI27
aI30
aa(lp6222
I0
aI23
aI57
aI0
aaaI6
aa(lp6223
(lp6224
(lp6225
I0
aI0
aI0
aI0
aa(lp6226
I39
aI0
aI25
aI17
aa(lp6227
I0
aI40
aI27
aI7
aa(lp6228
I0
aI27
aI0
aI0
aaaI6
aa(lp6229
(lp6230
(lp6231
I0
aI2
aI48
aI0
aa(lp6232
I6
aI0
aI0
aI18
aa(lp6233
I0
aI37
aI24
aI0
aa(lp6234
I41
aI0
aI0
aI0
aaaI6
aa(lp6235
(lp6236
(lp6237
I21
aI23
aI5
aI31
aa(lp6238
I0
aI0
aI0
aI57
aa(lp6239
I20
aI9
aI57
aI0
aa(lp6240
I47
aI39
aI6
aI18
aaaI1
aa(lp6241
(lp6242
(lp6243
I0
aI0
aI57
aI0
aa(lp6244
I15
aI57
aI0
aI45
aa(lp6245
I0
aI45
aI57
aI0
aa(lp6246
I39
aI50
aI48
aI47
aaaI6
aa(lp6247
(lp6248
(lp6249
I20
aI36
aI57
aI20
aa(lp6250
I0
aI57
aI0
aI23
aa(lp6251
I45
aI45
aI57
aI43
aa(lp6252
I12
aI1
aI57
aI0
aaaI3
aa(lp6253
(lp6254
(lp6255
I0
aI45
aI57
aI0
aa(lp6256
I23
aI26
aI36
aI0
aa(lp6257
I40
aI0
aI0
aI28
aa(lp6258
I0
aI31
aI0
aI0
aaaI6
aa(lp6259
(lp6260
(lp6261
I0
aI28
aI27
aI0
aa(lp6262
I15
aI57
aI0
aI0
aa(lp6263
I57
aI47
aI57
aI57
aa(lp6264
I48
aI5
aI1
aI0
aaaI6
aa(lp6265
(lp6266
(lp6267
I15
aI25
aI4
aI25
aa(lp6268
I0
aI36
aI45
aI18
aa(lp6269
I0
aI0
aI0
aI50
aa(lp6270
I39
aI0
aI0
aI5
aaaI3
aa(lp6271
(lp6272
(lp6273
I1
aI26
aI57
aI9
aa(lp6274
I28
aI0
aI0
aI0
aa(lp6275
I57
aI28
aI0
aI57
aa(lp6276
I0
aI0
aI16
aI0
aaaI1
aa(lp6277
(lp6278
(lp6279
I4
aI17
aI57
aI23
aa(lp6280
I0
aI57
aI14
aI0
aa(lp6281
I57
aI0
aI0
aI57
aa(lp6282
I10
aI57
aI57
aI57
aaaI2
aa(lp6283
(lp6284
(lp6285
I32
aI5
aI57
aI1
aa(lp6286
I17
aI0
aI0
aI0
aa(lp6287
I44
aI57
aI57
aI0
aa(lp6288
I0
aI57
aI0
aI0
aaaI6
aa(lp6289
(lp6290
(lp6291
I0
aI0
aI0
aI0
aa(lp6292
I0
aI0
aI39
aI14
aa(lp6293
I31
aI0
aI0
aI0
aa(lp6294
I0
aI25
aI0
aI0
aaaI6
aa.